	.text
	.file	"kernel.cpp"
	.section	.text._ZNK8pybind1117error_already_set4whatEv,"axG",@progbits,_ZNK8pybind1117error_already_set4whatEv,comdat
	.hidden	_ZNK8pybind1117error_already_set4whatEv # -- Begin function _ZNK8pybind1117error_already_set4whatEv
	.weak	_ZNK8pybind1117error_already_set4whatEv
	.p2align	4, 0x90
	.type	_ZNK8pybind1117error_already_set4whatEv,@function
_ZNK8pybind1117error_already_set4whatEv: # @_ZNK8pybind1117error_already_set4whatEv
.Lfunc_begin0:
	.cfi_startproc
	.cfi_personality 155, DW.ref.__gxx_personality_v0
	.cfi_lsda 27, .Lexception0
# %bb.0:                                # %entry
	pushq	%rbx
	.cfi_def_cfa_offset 16
	subq	$48, %rsp
	.cfi_def_cfa_offset 64
	.cfi_offset %rbx, -16
	movq	%rdi, %rbx
.Ltmp0:
	leaq	32(%rsp), %rdi
	callq	_ZN8pybind1118gil_scoped_acquireC2Ev
.Ltmp1:
# %bb.1:                                # %invoke.cont
	leaq	16(%rsp), %rsi
	leaq	24(%rsp), %rdx
.Ltmp2:
	leaq	8(%rsp), %rdi
	callq	PyErr_Fetch@PLT
.Ltmp3:
# %bb.2:                                # %invoke.cont2
	movq	8(%rbx), %rdi
.Ltmp4:
	callq	_ZNK8pybind116detail25error_fetch_and_normalize12error_stringB5cxx11Ev
.Ltmp5:
# %bb.3:                                # %invoke.cont3
	movq	(%rax), %rbx
	movq	8(%rsp), %rdi
	movq	16(%rsp), %rsi
	movq	24(%rsp), %rdx
.Ltmp7:
	callq	PyErr_Restore@PLT
.Ltmp8:
# %bb.4:                                # %_ZN8pybind1111error_scopeD2Ev.exit
	leaq	32(%rsp), %rdi
	callq	_ZN8pybind1118gil_scoped_acquireD2Ev
	movq	%rbx, %rax
	addq	$48, %rsp
	.cfi_def_cfa_offset 16
	popq	%rbx
	.cfi_def_cfa_offset 8
	retq
.LBB0_6:                                # %terminate.lpad.i
	.cfi_def_cfa_offset 64
.Ltmp9:
	movq	%rax, %rdi
	callq	__clang_call_terminate
.LBB0_5:                                # %terminate.lpad
.Ltmp6:
	movq	%rax, %rdi
	callq	__clang_call_terminate
.Lfunc_end0:
	.size	_ZNK8pybind1117error_already_set4whatEv, .Lfunc_end0-_ZNK8pybind1117error_already_set4whatEv
	.cfi_endproc
	.section	.gcc_except_table._ZNK8pybind1117error_already_set4whatEv,"aG",@progbits,_ZNK8pybind1117error_already_set4whatEv,comdat
	.p2align	2, 0x0
GCC_except_table0:
.Lexception0:
	.byte	255                             # @LPStart Encoding = omit
	.byte	155                             # @TType Encoding = indirect pcrel sdata4
	.uleb128 .Lttbase0-.Lttbaseref0
.Lttbaseref0:
	.byte	1                               # Call site Encoding = uleb128
	.uleb128 .Lcst_end0-.Lcst_begin0
.Lcst_begin0:
	.uleb128 .Ltmp0-.Lfunc_begin0           # >> Call Site 1 <<
	.uleb128 .Ltmp5-.Ltmp0                  #   Call between .Ltmp0 and .Ltmp5
	.uleb128 .Ltmp6-.Lfunc_begin0           #     jumps to .Ltmp6
	.byte	1                               #   On action: 1
	.uleb128 .Ltmp7-.Lfunc_begin0           # >> Call Site 2 <<
	.uleb128 .Ltmp8-.Ltmp7                  #   Call between .Ltmp7 and .Ltmp8
	.uleb128 .Ltmp9-.Lfunc_begin0           #     jumps to .Ltmp9
	.byte	1                               #   On action: 1
.Lcst_end0:
	.byte	1                               # >> Action Record 1 <<
                                        #   Catch TypeInfo 1
	.byte	0                               #   No further actions
	.p2align	2, 0x0
                                        # >> Catch TypeInfos <<
	.long	0                               # TypeInfo 1
.Lttbase0:
	.p2align	2, 0x0
                                        # -- End function
	.section	.text._ZN8pybind1118gil_scoped_acquireC2Ev,"axG",@progbits,_ZN8pybind1118gil_scoped_acquireC2Ev,comdat
	.hidden	_ZN8pybind1118gil_scoped_acquireC2Ev # -- Begin function _ZN8pybind1118gil_scoped_acquireC2Ev
	.weak	_ZN8pybind1118gil_scoped_acquireC2Ev
	.p2align	4, 0x90
	.type	_ZN8pybind1118gil_scoped_acquireC2Ev,@function
_ZN8pybind1118gil_scoped_acquireC2Ev:   # @_ZN8pybind1118gil_scoped_acquireC2Ev
	.cfi_startproc
# %bb.0:                                # %entry
	pushq	%r14
	.cfi_def_cfa_offset 16
	pushq	%rbx
	.cfi_def_cfa_offset 24
	pushq	%rax
	.cfi_def_cfa_offset 32
	.cfi_offset %rbx, -24
	.cfi_offset %r14, -16
	movq	%rdi, %rbx
	movq	$0, (%rdi)
	movw	$257, 8(%rdi)                   # imm = 0x101
	callq	_ZN8pybind116detail13get_internalsEv
	movq	%rax, %r14
	movq	456(%rax), %rdi
	callq	PyThread_tss_get@PLT
	movq	%rax, (%rbx)
	testq	%rax, %rax
	jne	.LBB1_4
# %bb.1:                                # %if.end
	callq	PyGILState_GetThisThreadState@PLT
	movq	%rax, (%rbx)
	testq	%rax, %rax
	je	.LBB1_2
.LBB1_4:                                # %if.else
	callq	_PyThreadState_UncheckedGet@PLT
	movq	(%rbx), %rdi
	cmpq	%rdi, %rax
	setne	8(%rbx)
	je	.LBB1_7
.LBB1_6:                                # %if.then26
	callq	PyEval_AcquireThread@PLT
	movq	(%rbx), %rdi
.LBB1_7:                                # %if.end28
	incl	160(%rdi)
	addq	$8, %rsp
	.cfi_def_cfa_offset 24
	popq	%rbx
	.cfi_def_cfa_offset 16
	popq	%r14
	.cfi_def_cfa_offset 8
	retq
.LBB1_2:                                # %if.then10
	.cfi_def_cfa_offset 32
	movq	464(%r14), %rdi
	callq	PyThreadState_New@PLT
	movq	%rax, (%rbx)
	testq	%rax, %rax
	je	.LBB1_3
# %bb.5:                                # %if.end24
	movl	$0, 160(%rax)
	movq	456(%r14), %rdi
	movq	%rax, %rsi
	callq	PyThread_tss_set@PLT
	movq	(%rbx), %rdi
	testb	$1, 8(%rbx)
	jne	.LBB1_6
	jmp	.LBB1_7
.LBB1_3:                                # %if.then15
	leaq	.L.str.4(%rip), %rdi
	callq	_ZN8pybind1113pybind11_failEPKc
.Lfunc_end1:
	.size	_ZN8pybind1118gil_scoped_acquireC2Ev, .Lfunc_end1-_ZN8pybind1118gil_scoped_acquireC2Ev
	.cfi_endproc
                                        # -- End function
	.section	.text.__clang_call_terminate,"axG",@progbits,__clang_call_terminate,comdat
	.hidden	__clang_call_terminate          # -- Begin function __clang_call_terminate
	.weak	__clang_call_terminate
	.p2align	4, 0x90
	.type	__clang_call_terminate,@function
__clang_call_terminate:                 # @__clang_call_terminate
	.cfi_startproc
# %bb.0:
	pushq	%rax
	.cfi_def_cfa_offset 16
	callq	__cxa_begin_catch@PLT
	callq	_ZSt9terminatev@PLT
.Lfunc_end2:
	.size	__clang_call_terminate, .Lfunc_end2-__clang_call_terminate
	.cfi_endproc
                                        # -- End function
	.section	.text._ZNK8pybind116detail25error_fetch_and_normalize12error_stringB5cxx11Ev,"axG",@progbits,_ZNK8pybind116detail25error_fetch_and_normalize12error_stringB5cxx11Ev,comdat
	.hidden	_ZNK8pybind116detail25error_fetch_and_normalize12error_stringB5cxx11Ev # -- Begin function _ZNK8pybind116detail25error_fetch_and_normalize12error_stringB5cxx11Ev
	.weak	_ZNK8pybind116detail25error_fetch_and_normalize12error_stringB5cxx11Ev
	.p2align	4, 0x90
	.type	_ZNK8pybind116detail25error_fetch_and_normalize12error_stringB5cxx11Ev,@function
_ZNK8pybind116detail25error_fetch_and_normalize12error_stringB5cxx11Ev: # @_ZNK8pybind116detail25error_fetch_and_normalize12error_stringB5cxx11Ev
.Lfunc_begin1:
	.cfi_startproc
	.cfi_personality 155, DW.ref.__gxx_personality_v0
	.cfi_lsda 27, .Lexception1
# %bb.0:                                # %entry
	pushq	%r15
	.cfi_def_cfa_offset 16
	pushq	%r14
	.cfi_def_cfa_offset 24
	pushq	%rbx
	.cfi_def_cfa_offset 32
	subq	$64, %rsp
	.cfi_def_cfa_offset 96
	.cfi_offset %rbx, -32
	.cfi_offset %r14, -24
	.cfi_offset %r15, -16
	movq	%rdi, %rbx
	cmpb	$0, 56(%rdi)
	jne	.LBB3_18
# %bb.1:                                # %if.then
	leaq	32(%rsp), %r14
	movq	%r14, %rdi
	movq	%rbx, %rsi
	callq	_ZNK8pybind116detail25error_fetch_and_normalize22format_value_and_traceB5cxx11Ev
.Ltmp10:
	leaq	.L.str.7(%rip), %rcx
	movl	$2, %r8d
	movq	%r14, %rdi
	xorl	%esi, %esi
	xorl	%edx, %edx
	callq	_ZNSt7__cxx1112basic_stringIcSt11char_traitsIcESaIcEE10_M_replaceEmmPKcm@PLT
.Ltmp11:
# %bb.2:                                # %call3.i.i.i.noexc
	leaq	16(%rsp), %r14
	movq	%r14, (%rsp)
	movq	(%rax), %rcx
	movq	%rax, %rdx
	addq	$16, %rdx
	cmpq	%rdx, %rcx
	je	.LBB3_3
# %bb.4:                                # %if.else.i.i
	movq	%rcx, (%rsp)
	movq	(%rdx), %rsi
	movq	%rsi, 16(%rsp)
	jmp	.LBB3_5
.LBB3_3:                                # %if.then.i.i
	movups	(%rdx), %xmm0
	movups	%xmm0, (%r14)
	movq	%r14, %rcx
.LBB3_5:                                # %invoke.cont
	movq	8(%rax), %r8
	movq	%r8, 8(%rsp)
	movq	%rdx, (%rax)
	movq	$0, 8(%rax)
	movb	$0, 16(%rax)
	movq	24(%rbx), %rdi
	movq	32(%rbx), %rsi
	leaq	(%rsi,%r8), %r15
	leaq	40(%rbx), %rdx
	movl	$15, %eax
	cmpq	%rdx, %rdi
	je	.LBB3_7
# %bb.6:                                # %invoke.cont
	movq	40(%rbx), %rax
.LBB3_7:                                # %invoke.cont
	cmpq	%rax, %r15
	jbe	.LBB3_8
# %bb.12:                               # %if.else.i.i.i
.Ltmp13:
	leaq	24(%rbx), %rdi
	xorl	%edx, %edx
	callq	_ZNSt7__cxx1112basic_stringIcSt11char_traitsIcESaIcEE9_M_mutateEmmPKcm@PLT
.Ltmp14:
	jmp	.LBB3_13
.LBB3_8:                                # %if.then.i.i.i
	testq	%r8, %r8
	je	.LBB3_13
# %bb.9:                                # %if.then3.i.i.i
	addq	%rsi, %rdi
	cmpq	$1, %r8
	jne	.LBB3_11
# %bb.10:                               # %if.then.i.i.i.i
	movzbl	(%rcx), %eax
	movb	%al, (%rdi)
	jmp	.LBB3_13
.LBB3_11:                               # %if.end.i.i.i.i.i
	movq	%rcx, %rsi
	movq	%r8, %rdx
	callq	memcpy@PLT
.LBB3_13:                               # %invoke.cont4
	movq	%r15, 32(%rbx)
	movq	24(%rbx), %rax
	movb	$0, (%rax,%r15)
	movq	(%rsp), %rdi
	cmpq	%r14, %rdi
	je	.LBB3_15
# %bb.14:                               # %if.then.i.i5
	movq	16(%rsp), %rsi
	incq	%rsi
	callq	_ZdlPvm@PLT
.LBB3_15:                               # %_ZNSt7__cxx1112basic_stringIcSt11char_traitsIcESaIcEED2Ev.exit
	movq	32(%rsp), %rdi
	leaq	48(%rsp), %rax
	cmpq	%rax, %rdi
	je	.LBB3_17
# %bb.16:                               # %if.then.i.i8
	movq	48(%rsp), %rsi
	incq	%rsi
	callq	_ZdlPvm@PLT
.LBB3_17:                               # %_ZNSt7__cxx1112basic_stringIcSt11char_traitsIcESaIcEED2Ev.exit10
	movb	$1, 56(%rbx)
.LBB3_18:                               # %if.end
	addq	$24, %rbx
	movq	%rbx, %rax
	addq	$64, %rsp
	.cfi_def_cfa_offset 32
	popq	%rbx
	.cfi_def_cfa_offset 24
	popq	%r14
	.cfi_def_cfa_offset 16
	popq	%r15
	.cfi_def_cfa_offset 8
	retq
.LBB3_20:                               # %lpad3
	.cfi_def_cfa_offset 96
.Ltmp15:
	movq	%rax, %rbx
	movq	(%rsp), %rdi
	cmpq	%r14, %rdi
	jne	.LBB3_21
# %bb.22:                               # %ehcleanup
	movq	32(%rsp), %rdi
	leaq	48(%rsp), %rax
	cmpq	%rax, %rdi
	jne	.LBB3_23
.LBB3_24:                               # %_ZNSt7__cxx1112basic_stringIcSt11char_traitsIcESaIcEED2Ev.exit18
	movq	%rbx, %rdi
	callq	_Unwind_Resume@PLT
.LBB3_21:                               # %if.then.i.i12
	movq	16(%rsp), %rsi
	incq	%rsi
	callq	_ZdlPvm@PLT
	movq	32(%rsp), %rdi
	leaq	48(%rsp), %rax
	cmpq	%rax, %rdi
	je	.LBB3_24
	jmp	.LBB3_23
.LBB3_19:                               # %lpad
.Ltmp12:
	movq	%rax, %rbx
	movq	32(%rsp), %rdi
	leaq	48(%rsp), %rax
	cmpq	%rax, %rdi
	je	.LBB3_24
.LBB3_23:                               # %if.then.i.i16
	movq	48(%rsp), %rsi
	incq	%rsi
	callq	_ZdlPvm@PLT
	movq	%rbx, %rdi
	callq	_Unwind_Resume@PLT
.Lfunc_end3:
	.size	_ZNK8pybind116detail25error_fetch_and_normalize12error_stringB5cxx11Ev, .Lfunc_end3-_ZNK8pybind116detail25error_fetch_and_normalize12error_stringB5cxx11Ev
	.cfi_endproc
	.section	.gcc_except_table._ZNK8pybind116detail25error_fetch_and_normalize12error_stringB5cxx11Ev,"aG",@progbits,_ZNK8pybind116detail25error_fetch_and_normalize12error_stringB5cxx11Ev,comdat
	.p2align	2, 0x0
GCC_except_table3:
.Lexception1:
	.byte	255                             # @LPStart Encoding = omit
	.byte	255                             # @TType Encoding = omit
	.byte	1                               # Call site Encoding = uleb128
	.uleb128 .Lcst_end1-.Lcst_begin1
.Lcst_begin1:
	.uleb128 .Lfunc_begin1-.Lfunc_begin1    # >> Call Site 1 <<
	.uleb128 .Ltmp10-.Lfunc_begin1          #   Call between .Lfunc_begin1 and .Ltmp10
	.byte	0                               #     has no landing pad
	.byte	0                               #   On action: cleanup
	.uleb128 .Ltmp10-.Lfunc_begin1          # >> Call Site 2 <<
	.uleb128 .Ltmp11-.Ltmp10                #   Call between .Ltmp10 and .Ltmp11
	.uleb128 .Ltmp12-.Lfunc_begin1          #     jumps to .Ltmp12
	.byte	0                               #   On action: cleanup
	.uleb128 .Ltmp13-.Lfunc_begin1          # >> Call Site 3 <<
	.uleb128 .Ltmp14-.Ltmp13                #   Call between .Ltmp13 and .Ltmp14
	.uleb128 .Ltmp15-.Lfunc_begin1          #     jumps to .Ltmp15
	.byte	0                               #   On action: cleanup
	.uleb128 .Ltmp14-.Lfunc_begin1          # >> Call Site 4 <<
	.uleb128 .Lfunc_end3-.Ltmp14            #   Call between .Ltmp14 and .Lfunc_end3
	.byte	0                               #     has no landing pad
	.byte	0                               #   On action: cleanup
.Lcst_end1:
	.p2align	2, 0x0
                                        # -- End function
	.section	.text._ZN8pybind1111error_scopeD2Ev,"axG",@progbits,_ZN8pybind1111error_scopeD2Ev,comdat
	.hidden	_ZN8pybind1111error_scopeD2Ev   # -- Begin function _ZN8pybind1111error_scopeD2Ev
	.weak	_ZN8pybind1111error_scopeD2Ev
	.p2align	4, 0x90
	.type	_ZN8pybind1111error_scopeD2Ev,@function
_ZN8pybind1111error_scopeD2Ev:          # @_ZN8pybind1111error_scopeD2Ev
.Lfunc_begin2:
	.cfi_startproc
	.cfi_personality 155, DW.ref.__gxx_personality_v0
	.cfi_lsda 27, .Lexception2
# %bb.0:                                # %entry
	pushq	%rax
	.cfi_def_cfa_offset 16
	movq	(%rdi), %rax
	movq	8(%rdi), %rsi
	movq	16(%rdi), %rdx
.Ltmp16:
	movq	%rax, %rdi
	callq	PyErr_Restore@PLT
.Ltmp17:
# %bb.1:                                # %invoke.cont
	popq	%rax
	.cfi_def_cfa_offset 8
	retq
.LBB4_2:                                # %terminate.lpad
	.cfi_def_cfa_offset 16
.Ltmp18:
	movq	%rax, %rdi
	callq	__clang_call_terminate
.Lfunc_end4:
	.size	_ZN8pybind1111error_scopeD2Ev, .Lfunc_end4-_ZN8pybind1111error_scopeD2Ev
	.cfi_endproc
	.section	.gcc_except_table._ZN8pybind1111error_scopeD2Ev,"aG",@progbits,_ZN8pybind1111error_scopeD2Ev,comdat
	.p2align	2, 0x0
GCC_except_table4:
.Lexception2:
	.byte	255                             # @LPStart Encoding = omit
	.byte	155                             # @TType Encoding = indirect pcrel sdata4
	.uleb128 .Lttbase1-.Lttbaseref1
.Lttbaseref1:
	.byte	1                               # Call site Encoding = uleb128
	.uleb128 .Lcst_end2-.Lcst_begin2
.Lcst_begin2:
	.uleb128 .Ltmp16-.Lfunc_begin2          # >> Call Site 1 <<
	.uleb128 .Ltmp17-.Ltmp16                #   Call between .Ltmp16 and .Ltmp17
	.uleb128 .Ltmp18-.Lfunc_begin2          #     jumps to .Ltmp18
	.byte	1                               #   On action: 1
.Lcst_end2:
	.byte	1                               # >> Action Record 1 <<
                                        #   Catch TypeInfo 1
	.byte	0                               #   No further actions
	.p2align	2, 0x0
                                        # >> Catch TypeInfos <<
	.long	0                               # TypeInfo 1
.Lttbase1:
	.p2align	2, 0x0
                                        # -- End function
	.section	.text._ZN8pybind1118gil_scoped_acquireD2Ev,"axG",@progbits,_ZN8pybind1118gil_scoped_acquireD2Ev,comdat
	.hidden	_ZN8pybind1118gil_scoped_acquireD2Ev # -- Begin function _ZN8pybind1118gil_scoped_acquireD2Ev
	.weak	_ZN8pybind1118gil_scoped_acquireD2Ev
	.p2align	4, 0x90
	.type	_ZN8pybind1118gil_scoped_acquireD2Ev,@function
_ZN8pybind1118gil_scoped_acquireD2Ev:   # @_ZN8pybind1118gil_scoped_acquireD2Ev
.Lfunc_begin3:
	.cfi_startproc
	.cfi_personality 155, DW.ref.__gxx_personality_v0
	.cfi_lsda 27, .Lexception3
# %bb.0:                                # %entry
	pushq	%rbx
	.cfi_def_cfa_offset 16
	.cfi_offset %rbx, -16
	movq	%rdi, %rbx
.Ltmp19:
	callq	_ZN8pybind1118gil_scoped_acquire7dec_refEv
.Ltmp20:
# %bb.1:                                # %invoke.cont
	cmpb	$1, 8(%rbx)
	jne	.LBB5_3
# %bb.2:                                # %if.then
.Ltmp21:
	callq	PyEval_SaveThread@PLT
.Ltmp22:
.LBB5_3:                                # %if.end
	popq	%rbx
	.cfi_def_cfa_offset 8
	retq
.LBB5_4:                                # %terminate.lpad
	.cfi_def_cfa_offset 16
.Ltmp23:
	movq	%rax, %rdi
	callq	__clang_call_terminate
.Lfunc_end5:
	.size	_ZN8pybind1118gil_scoped_acquireD2Ev, .Lfunc_end5-_ZN8pybind1118gil_scoped_acquireD2Ev
	.cfi_endproc
	.section	.gcc_except_table._ZN8pybind1118gil_scoped_acquireD2Ev,"aG",@progbits,_ZN8pybind1118gil_scoped_acquireD2Ev,comdat
	.p2align	2, 0x0
GCC_except_table5:
.Lexception3:
	.byte	255                             # @LPStart Encoding = omit
	.byte	155                             # @TType Encoding = indirect pcrel sdata4
	.uleb128 .Lttbase2-.Lttbaseref2
.Lttbaseref2:
	.byte	1                               # Call site Encoding = uleb128
	.uleb128 .Lcst_end3-.Lcst_begin3
.Lcst_begin3:
	.uleb128 .Ltmp19-.Lfunc_begin3          # >> Call Site 1 <<
	.uleb128 .Ltmp22-.Ltmp19                #   Call between .Ltmp19 and .Ltmp22
	.uleb128 .Ltmp23-.Lfunc_begin3          #     jumps to .Ltmp23
	.byte	1                               #   On action: 1
.Lcst_end3:
	.byte	1                               # >> Action Record 1 <<
                                        #   Catch TypeInfo 1
	.byte	0                               #   No further actions
	.p2align	2, 0x0
                                        # >> Catch TypeInfos <<
	.long	0                               # TypeInfo 1
.Lttbase2:
	.p2align	2, 0x0
                                        # -- End function
	.text
	.globl	_Z23__device_stub__micro_tk13micro_globals # -- Begin function _Z23__device_stub__micro_tk13micro_globals
	.p2align	4, 0x90
	.type	_Z23__device_stub__micro_tk13micro_globals,@function
_Z23__device_stub__micro_tk13micro_globals: # @_Z23__device_stub__micro_tk13micro_globals
	.cfi_startproc
# %bb.0:                                # %entry
	subq	$56, %rsp
	.cfi_def_cfa_offset 64
	movq	%rdi, (%rsp)
	leaq	40(%rsp), %rdi
	leaq	24(%rsp), %rsi
	leaq	16(%rsp), %rdx
	leaq	8(%rsp), %rcx
	callq	__hipPopCallConfiguration@PLT
	movq	40(%rsp), %rsi
	movl	48(%rsp), %edx
	movq	24(%rsp), %rcx
	movl	32(%rsp), %r8d
	movq	_Z8micro_tk13micro_globals@GOTPCREL(%rip), %rdi
	movq	%rsp, %r9
	pushq	8(%rsp)
	.cfi_adjust_cfa_offset 8
	pushq	24(%rsp)
	.cfi_adjust_cfa_offset 8
	callq	hipLaunchKernel@PLT
	addq	$72, %rsp
	.cfi_adjust_cfa_offset -72
	retq
.Lfunc_end6:
	.size	_Z23__device_stub__micro_tk13micro_globals, .Lfunc_end6-_Z23__device_stub__micro_tk13micro_globals
	.cfi_endproc
                                        # -- End function
	.globl	_Z14dispatch_micro13micro_globals # -- Begin function _Z14dispatch_micro13micro_globals
	.p2align	4, 0x90
	.type	_Z14dispatch_micro13micro_globals,@function
_Z14dispatch_micro13micro_globals:      # @_Z14dispatch_micro13micro_globals
	.cfi_startproc
# %bb.0:                                # %entry
	pushq	%rbx
	.cfi_def_cfa_offset 16
	subq	$208, %rsp
	.cfi_def_cfa_offset 224
	.cfi_offset %rbx, -16
	movq	%rdi, %rbx
	movq	_Z8micro_tk13micro_globals@GOTPCREL(%rip), %rdi
	movl	$8, %esi
	movl	$160000, %edx                   # imm = 0x27100
	callq	hipFuncSetAttribute@PLT
	movabsq	$4294967297, %rdi               # imm = 0x100000001
	leaq	63(%rdi), %rdx
	movl	$160000, %r8d                   # imm = 0x27100
	movl	$1, %esi
	movl	$1, %ecx
	xorl	%r9d, %r9d
	callq	__hipPushCallConfiguration@PLT
	testl	%eax, %eax
	je	.LBB7_1
# %bb.2:                                # %kcall.end
	callq	hipDeviceSynchronize@PLT
	addq	$208, %rsp
	.cfi_def_cfa_offset 16
	popq	%rbx
	.cfi_def_cfa_offset 8
	retq
.LBB7_1:                                # %kcall.configok
	.cfi_def_cfa_offset 224
	movq	(%rbx), %rax
	movq	%rax, 64(%rsp)
	movups	8(%rbx), %xmm0
	movups	%xmm0, 72(%rsp)
	movups	24(%rbx), %xmm0
	movups	%xmm0, 88(%rsp)
	movq	48(%rbx), %rax
	movq	%rax, 112(%rsp)
	movups	56(%rbx), %xmm0
	movups	%xmm0, 120(%rsp)
	movups	72(%rbx), %xmm0
	movups	%xmm0, 136(%rsp)
	movq	96(%rbx), %rax
	movq	%rax, 160(%rsp)
	movups	104(%rbx), %xmm0
	movups	%xmm0, 168(%rsp)
	movups	120(%rbx), %xmm0
	movups	%xmm0, 184(%rsp)
	leaq	64(%rsp), %rax
	movq	%rax, (%rsp)
	leaq	48(%rsp), %rdi
	leaq	32(%rsp), %rsi
	leaq	24(%rsp), %rdx
	leaq	16(%rsp), %rcx
	callq	__hipPopCallConfiguration@PLT
	movq	48(%rsp), %rsi
	movl	56(%rsp), %edx
	movq	32(%rsp), %rcx
	movl	40(%rsp), %r8d
	movq	_Z8micro_tk13micro_globals@GOTPCREL(%rip), %rdi
	movq	%rsp, %r9
	pushq	16(%rsp)
	.cfi_adjust_cfa_offset 8
	pushq	32(%rsp)
	.cfi_adjust_cfa_offset 8
	callq	hipLaunchKernel@PLT
	addq	$16, %rsp
	.cfi_adjust_cfa_offset -16
	callq	hipDeviceSynchronize@PLT
	addq	$208, %rsp
	.cfi_def_cfa_offset 16
	popq	%rbx
	.cfi_def_cfa_offset 8
	retq
.Lfunc_end7:
	.size	_Z14dispatch_micro13micro_globals, .Lfunc_end7-_Z14dispatch_micro13micro_globals
	.cfi_endproc
                                        # -- End function
	.globl	PyInit_tk_kernel                # -- Begin function PyInit_tk_kernel
	.p2align	4, 0x90
	.type	PyInit_tk_kernel,@function
PyInit_tk_kernel:                       # @PyInit_tk_kernel
.Lfunc_begin4:
	.cfi_startproc
	.cfi_personality 155, DW.ref.__gxx_personality_v0
	.cfi_lsda 27, .Lexception4
# %bb.0:                                # %entry
	pushq	%r15
	.cfi_def_cfa_offset 16
	pushq	%r14
	.cfi_def_cfa_offset 24
	pushq	%r12
	.cfi_def_cfa_offset 32
	pushq	%rbx
	.cfi_def_cfa_offset 40
	subq	$72, %rsp
	.cfi_def_cfa_offset 112
	.cfi_offset %rbx, -40
	.cfi_offset %r12, -32
	.cfi_offset %r14, -24
	.cfi_offset %r15, -16
	callq	Py_GetVersion@PLT
	movq	%rax, %r14
	leaq	.L.str(%rip), %rsi
	movl	$4, %edx
	movq	%rax, %rdi
	callq	strncmp@PLT
	testl	%eax, %eax
	jne	.LBB8_2
# %bb.1:                                # %lor.lhs.false
	movzbl	4(%r14), %eax
	addb	$-48, %al
	cmpb	$9, %al
	ja	.LBB8_4
.LBB8_2:                                # %cleanup
	movq	PyExc_ImportError@GOTPCREL(%rip), %rax
	movq	(%rax), %rdi
	leaq	.L.str.1(%rip), %rsi
	leaq	.L.str(%rip), %rdx
	xorl	%ebx, %ebx
	movq	%r14, %rcx
	xorl	%eax, %eax
	callq	PyErr_Format@PLT
.LBB8_3:                                # %return
	movq	%rbx, %rax
	addq	$72, %rsp
	.cfi_def_cfa_offset 40
	popq	%rbx
	.cfi_def_cfa_offset 32
	popq	%r12
	.cfi_def_cfa_offset 24
	popq	%r14
	.cfi_def_cfa_offset 16
	popq	%r15
	.cfi_def_cfa_offset 8
	retq
.LBB8_4:                                # %cleanup.cont
	.cfi_def_cfa_offset 112
	callq	_ZN8pybind116detail13get_internalsEv
	leaq	.L.str.2(%rip), %rsi
	leaq	_ZL29pybind11_module_def_tk_kernel(%rip), %rcx
	leaq	8(%rsp), %rdi
	xorl	%edx, %edx
	xorl	%r8d, %r8d
	callq	_ZN8pybind117module_23create_extension_moduleEPKcS2_P11PyModuleDefNS_16mod_gil_not_usedE
	movq	8(%rsp), %rax
	movq	%rax, 48(%rsp)
	leaq	.L.str.165(%rip), %rax
	movq	%rax, 56(%rsp)
	leaq	64(%rsp), %r15
	movq	$0, 64(%rsp)
.Ltmp24:
	leaq	.L.str.163(%rip), %rsi
	leaq	40(%rsp), %rdi
	callq	_ZNO8pybind116detail8accessorINS0_17accessor_policies8str_attrEEaSIRA24_KcEEvOT_
.Ltmp25:
# %bb.5:                                # %invoke.cont.i
.Ltmp30:
	movq	%r15, %rdi
	callq	_ZNKR8pybind116handle7dec_refEv
.Ltmp31:
# %bb.6:                                # %_ZN8pybind116detail8accessorINS0_17accessor_policies8str_attrEED2Ev.exit.i
	movq	8(%rsp), %rax
	movq	%rax, 16(%rsp)
.Ltmp33:
	leaq	16(%rsp), %rdi
	callq	_ZNKR8pybind116handle7inc_refEv
.Ltmp34:
# %bb.7:                                # %call.i.i3.i.noexc
	movq	16(%rsp), %rbx
	movq	_Py_NoneStruct@GOTPCREL(%rip), %rax
	movq	%rax, 32(%rsp)
.Ltmp36:
	leaq	32(%rsp), %rdi
	callq	_ZNKR8pybind116handle7inc_refEv
.Ltmp37:
# %bb.8:                                # %call.i.i.i.i.noexc.i
	movq	32(%rsp), %r12
.Ltmp39:
	leaq	.L.str.164(%rip), %r14
	movq	%rbx, %rdi
	movq	%r14, %rsi
	callq	PyObject_GetAttrString@PLT
.Ltmp40:
# %bb.9:                                # %call2.i.noexc.i.i.i
	movq	%rax, %r15
	testq	%rax, %rax
	je	.LBB8_11
# %bb.10:                               # %cleanup.i.i.i.i
	movq	%r15, 24(%rsp)
	jmp	.LBB8_14
.LBB8_11:                               # %cleanup.cont.i.i.i.i
.Ltmp41:
	callq	PyErr_Clear@PLT
.Ltmp42:
# %bb.12:                               # %.noexc.i.i.i
	movq	%r12, 24(%rsp)
.Ltmp43:
	leaq	24(%rsp), %rdi
	callq	_ZNKR8pybind116handle7inc_refEv
.Ltmp44:
# %bb.13:                               # %.noexc.invoke.cont9_crit_edge.i.i.i
	movq	24(%rsp), %r15
.LBB8_14:                               # %invoke.cont9.i.i.i
	movq	$0, (%rsp)
.Ltmp46:
	leaq	40(%rsp), %rdi
	movq	%rsp, %rsi
	callq	_ZN8pybind1112cpp_function20make_function_recordEv
.Ltmp47:
# %bb.15:                               # %.noexc.i.i.i.i
	movq	40(%rsp), %rax
	leaq	_ZZN8pybind1112cpp_function10initializeIZN7kittens2pyL13bind_functionITnDaXadL_Z14dispatch_micro13micro_globalsEES5_NS_7module_EPKcJNS2_2glI14__hip_bfloat16Lin1ELin1ELin1ELin1EJEEESB_NS9_IfLin1ELin1ELin1ELin1EJEEEEEEvT1_T2_DpMT0_T3_EUlNS_6objectESJ_SJ_E_vJSJ_SJ_SJ_EJNS_4nameENS_5scopeENS_7siblingEEEEvOT_PFSF_DpT1_EDpRKT2_ENUlRNS_6detail13function_callEE_8__invokeES10_(%rip), %rcx
	movq	%rcx, 48(%rax)
	movw	$3, 94(%rax)
	andb	$63, 89(%rax)
	movq	%r14, (%rax)
	movq	%rbx, 112(%rax)
	movq	%r15, 120(%rax)
.Ltmp49:
	leaq	_ZZN8pybind1112cpp_function10initializeIZN7kittens2pyL13bind_functionITnDaXadL_Z14dispatch_micro13micro_globalsEES5_NS_7module_EPKcJNS2_2glI14__hip_bfloat16Lin1ELin1ELin1ELin1EJEEESB_NS9_IfLin1ELin1ELin1ELin1EJEEEEEEvT1_T2_DpMT0_T3_EUlNS_6objectESJ_SJ_E_vJSJ_SJ_SJ_EJNS_4nameENS_5scopeENS_7siblingEEEEvOT_PFSF_DpT1_EDpRKT2_E9signature(%rip), %rdx
	leaq	_ZZN8pybind1112cpp_function10initializeIZN7kittens2pyL13bind_functionITnDaXadL_Z14dispatch_micro13micro_globalsEES5_NS_7module_EPKcJNS2_2glI14__hip_bfloat16Lin1ELin1ELin1ELin1EJEEESB_NS9_IfLin1ELin1ELin1ELin1EJEEEEEEvT1_T2_DpMT0_T3_EUlNS_6objectESJ_SJ_E_vJSJ_SJ_SJ_EJNS_4nameENS_5scopeENS_7siblingEEEEvOT_PFSF_DpT1_EDpRKT2_E5types(%rip), %rcx
	movq	%rsp, %rdi
	leaq	40(%rsp), %rsi
	movl	$3, %r8d
	callq	_ZN8pybind1112cpp_function18initialize_genericEOSt10unique_ptrINS_6detail15function_recordENS0_33InitializingFunctionRecordDeleterEEPKcPKPKSt9type_infom
.Ltmp50:
# %bb.16:                               # %invoke.cont12.i.i.i.i.i
	movq	40(%rsp), %rdi
	testq	%rdi, %rdi
	je	.LBB8_18
# %bb.17:                               # %if.then.i.i.i.i.i.i
.Ltmp61:
	xorl	%esi, %esi
	callq	_ZN8pybind1112cpp_function8destructEPNS_6detail15function_recordEb
.Ltmp62:
.LBB8_18:                               # %invoke.cont10.i.i.i
.Ltmp64:
	leaq	24(%rsp), %rdi
	callq	_ZNKR8pybind116handle7dec_refEv
.Ltmp65:
# %bb.19:                               # %_ZN8pybind116objectD2Ev.exit.i.i.i
.Ltmp67:
	leaq	32(%rsp), %rdi
	callq	_ZNKR8pybind116handle7dec_refEv
.Ltmp68:
# %bb.20:                               # %_ZN8pybind116objectD2Ev.exit11.i.i.i
	movq	(%rsp), %rdx
.Ltmp70:
	leaq	.L.str.164(%rip), %rsi
	leaq	16(%rsp), %rdi
	movl	$1, %ecx
	callq	_ZN8pybind117module_10add_objectEPKcNS_6handleEb
.Ltmp71:
# %bb.21:                               # %invoke.cont19.i.i.i
.Ltmp101:
	movq	%rsp, %rdi
	callq	_ZNKR8pybind116handle7dec_refEv
.Ltmp102:
# %bb.22:                               # %invoke.cont2.i
.Ltmp104:
	leaq	16(%rsp), %rdi
	callq	_ZNKR8pybind116handle7dec_refEv
.Ltmp105:
# %bb.23:                               # %invoke.cont
	movq	8(%rsp), %rbx
.LBB8_24:                               # %cleanup35
.Ltmp107:
	leaq	8(%rsp), %rdi
	callq	_ZNKR8pybind116handle7dec_refEv
.Ltmp108:
	jmp	.LBB8_3
.LBB8_25:                               # %terminate.lpad.i.i.i.i.i.i
.Ltmp63:
	movq	%rax, %rdi
	callq	__clang_call_terminate
.LBB8_26:                               # %terminate.lpad.i.i
.Ltmp106:
	movq	%rax, %rdi
	callq	__clang_call_terminate
.LBB8_27:                               # %terminate.lpad.i13.i.i.i
.Ltmp103:
	movq	%rax, %rdi
	callq	__clang_call_terminate
.LBB8_28:                               # %lpad18.i.i.i
.Ltmp72:
	movq	%rdx, %r14
	movq	%rax, %rbx
.Ltmp73:
	movq	%rsp, %rdi
	callq	_ZNKR8pybind116handle7dec_refEv
.Ltmp74:
	jmp	.LBB8_46
.LBB8_29:                               # %terminate.lpad.i22.i.i.i
.Ltmp75:
	movq	%rax, %rdi
	callq	__clang_call_terminate
.LBB8_30:                               # %terminate.lpad.i10.i.i.i
.Ltmp69:
	movq	%rax, %rdi
	callq	__clang_call_terminate
.LBB8_31:                               # %terminate.lpad.i.i.i.i
.Ltmp66:
	movq	%rax, %rdi
	callq	__clang_call_terminate
.LBB8_32:                               # %lpad.i.i.i.i.i
.Ltmp51:
	movq	%rdx, %r14
	movq	%rax, %rbx
	leaq	40(%rsp), %rdi
	callq	_ZNSt10unique_ptrIN8pybind116detail15function_recordENS0_12cpp_function33InitializingFunctionRecordDeleterEED2Ev
	jmp	.LBB8_34
.LBB8_33:                               # %lpad.i.i.i.i
.Ltmp48:
	movq	%rdx, %r14
	movq	%rax, %rbx
.LBB8_34:                               # %lpad.body.i.i.i.i
.Ltmp52:
	movq	%rsp, %rdi
	callq	_ZNKR8pybind116handle7dec_refEv
.Ltmp53:
# %bb.35:                               # %lpad8.body.i.i.i
.Ltmp55:
	leaq	24(%rsp), %rdi
	callq	_ZNKR8pybind116handle7dec_refEv
.Ltmp56:
	jmp	.LBB8_45
.LBB8_36:                               # %terminate.lpad.i16.i.i.i
.Ltmp57:
	movq	%rax, %rdi
	callq	__clang_call_terminate
.LBB8_37:                               # %terminate.lpad.i.i.i.i.i
.Ltmp54:
	movq	%rax, %rdi
	callq	__clang_call_terminate
.LBB8_38:                               # %terminate.lpad.i
.Ltmp109:
	movq	%rax, %rdi
	callq	__clang_call_terminate
.LBB8_39:                               # %lpad1.i
.Ltmp38:
	movq	%rdx, %r14
	movq	%rax, %rbx
	jmp	.LBB8_46
.LBB8_40:                               # %lpad
.Ltmp35:
	movq	%rdx, %r14
	movq	%rax, %rbx
	jmp	.LBB8_47
.LBB8_41:                               # %terminate.lpad.i.i.i
.Ltmp32:
	movq	%rax, %rdi
	callq	__clang_call_terminate
.LBB8_42:                               # %lpad.i
.Ltmp26:
	movq	%rdx, %r14
	movq	%rax, %rbx
.Ltmp27:
	movq	%r15, %rdi
	callq	_ZNKR8pybind116handle7dec_refEv
.Ltmp28:
	jmp	.LBB8_47
.LBB8_43:                               # %terminate.lpad.i.i7.i
.Ltmp29:
	movq	%rax, %rdi
	callq	__clang_call_terminate
.LBB8_44:                               # %lpad.i.i.i
.Ltmp45:
	movq	%rdx, %r14
	movq	%rax, %rbx
.LBB8_45:                               # %ehcleanup.i.i.i
.Ltmp58:
	leaq	32(%rsp), %rdi
	callq	_ZNKR8pybind116handle7dec_refEv
.Ltmp59:
.LBB8_46:                               # %lpad1.body.i
.Ltmp76:
	leaq	16(%rsp), %rdi
	callq	_ZNKR8pybind116handle7dec_refEv
.Ltmp77:
.LBB8_47:                               # %lpad.body
	cmpl	$2, %r14d
	jne	.LBB8_52
# %bb.48:                               # %catch23
	movq	%rbx, %rdi
	callq	__cxa_begin_catch@PLT
	movq	PyExc_ImportError@GOTPCREL(%rip), %rcx
	movq	(%rcx), %rbx
	movq	8(%rax), %rdi
.Ltmp87:
	callq	_ZN8pybind116detail25error_fetch_and_normalize7restoreEv
.Ltmp88:
# %bb.49:                               # %.noexc
.Ltmp89:
	leaq	.L.str.3(%rip), %rsi
	movq	%rbx, %rdi
	callq	_ZN8pybind1110raise_fromEP7_objectPKc
.Ltmp90:
# %bb.50:                               # %invoke.cont27
.Ltmp95:
	callq	__cxa_end_catch@PLT
.Ltmp96:
	jmp	.LBB8_51
.LBB8_52:                               # %catch.fallthrough
	cmpl	$1, %r14d
	jne	.LBB8_63
# %bb.53:                               # %catch
	movq	%rbx, %rdi
	callq	__cxa_begin_catch@PLT
	movq	PyExc_ImportError@GOTPCREL(%rip), %rcx
	movq	(%rcx), %rbx
	movq	(%rax), %rcx
	movq	%rax, %rdi
	callq	*16(%rcx)
.Ltmp79:
	movq	%rbx, %rdi
	movq	%rax, %rsi
	callq	PyErr_SetString@PLT
.Ltmp80:
# %bb.54:                               # %invoke.cont17
.Ltmp84:
	callq	__cxa_end_catch@PLT
.Ltmp85:
.LBB8_51:
	xorl	%ebx, %ebx
	jmp	.LBB8_24
.LBB8_56:                               # %terminate.lpad.i19.i.i.i
.Ltmp60:
	movq	%rax, %rdi
	callq	__clang_call_terminate
.LBB8_57:                               # %lpad19
.Ltmp86:
	jmp	.LBB8_60
.LBB8_58:                               # %lpad14
.Ltmp81:
	movq	%rax, %rbx
.Ltmp82:
	callq	__cxa_end_catch@PLT
.Ltmp83:
	jmp	.LBB8_63
.LBB8_59:                               # %lpad29
.Ltmp97:
.LBB8_60:                               # %ehcleanup36
	movq	%rax, %rbx
	jmp	.LBB8_63
.LBB8_61:                               # %terminate.lpad.i10.i
.Ltmp78:
	movq	%rax, %rdi
	callq	__clang_call_terminate
.LBB8_62:                               # %lpad26
.Ltmp91:
	movq	%rax, %rbx
.Ltmp92:
	callq	__cxa_end_catch@PLT
.Ltmp93:
.LBB8_63:                               # %ehcleanup36
.Ltmp98:
	leaq	8(%rsp), %rdi
	callq	_ZNKR8pybind116handle7dec_refEv
.Ltmp99:
# %bb.64:                               # %_ZN8pybind116objectD2Ev.exit19
	movq	%rbx, %rdi
	callq	_Unwind_Resume@PLT
.LBB8_65:                               # %terminate.lpad
.Ltmp94:
	movq	%rax, %rdi
	callq	__clang_call_terminate
.LBB8_66:                               # %terminate.lpad.i17
.Ltmp100:
	movq	%rax, %rdi
	callq	__clang_call_terminate
.Lfunc_end8:
	.size	PyInit_tk_kernel, .Lfunc_end8-PyInit_tk_kernel
	.cfi_endproc
	.section	.gcc_except_table,"a",@progbits
	.p2align	2, 0x0
GCC_except_table8:
.Lexception4:
	.byte	255                             # @LPStart Encoding = omit
	.byte	155                             # @TType Encoding = indirect pcrel sdata4
	.uleb128 .Lttbase3-.Lttbaseref3
.Lttbaseref3:
	.byte	1                               # Call site Encoding = uleb128
	.uleb128 .Lcst_end4-.Lcst_begin4
.Lcst_begin4:
	.uleb128 .Lfunc_begin4-.Lfunc_begin4    # >> Call Site 1 <<
	.uleb128 .Ltmp24-.Lfunc_begin4          #   Call between .Lfunc_begin4 and .Ltmp24
	.byte	0                               #     has no landing pad
	.byte	0                               #   On action: cleanup
	.uleb128 .Ltmp24-.Lfunc_begin4          # >> Call Site 2 <<
	.uleb128 .Ltmp25-.Ltmp24                #   Call between .Ltmp24 and .Ltmp25
	.uleb128 .Ltmp26-.Lfunc_begin4          #     jumps to .Ltmp26
	.byte	5                               #   On action: 3
	.uleb128 .Ltmp30-.Lfunc_begin4          # >> Call Site 3 <<
	.uleb128 .Ltmp31-.Ltmp30                #   Call between .Ltmp30 and .Ltmp31
	.uleb128 .Ltmp32-.Lfunc_begin4          #     jumps to .Ltmp32
	.byte	7                               #   On action: 4
	.uleb128 .Ltmp33-.Lfunc_begin4          # >> Call Site 4 <<
	.uleb128 .Ltmp34-.Ltmp33                #   Call between .Ltmp33 and .Ltmp34
	.uleb128 .Ltmp35-.Lfunc_begin4          #     jumps to .Ltmp35
	.byte	5                               #   On action: 3
	.uleb128 .Ltmp36-.Lfunc_begin4          # >> Call Site 5 <<
	.uleb128 .Ltmp37-.Ltmp36                #   Call between .Ltmp36 and .Ltmp37
	.uleb128 .Ltmp38-.Lfunc_begin4          #     jumps to .Ltmp38
	.byte	5                               #   On action: 3
	.uleb128 .Ltmp39-.Lfunc_begin4          # >> Call Site 6 <<
	.uleb128 .Ltmp44-.Ltmp39                #   Call between .Ltmp39 and .Ltmp44
	.uleb128 .Ltmp45-.Lfunc_begin4          #     jumps to .Ltmp45
	.byte	5                               #   On action: 3
	.uleb128 .Ltmp46-.Lfunc_begin4          # >> Call Site 7 <<
	.uleb128 .Ltmp47-.Ltmp46                #   Call between .Ltmp46 and .Ltmp47
	.uleb128 .Ltmp48-.Lfunc_begin4          #     jumps to .Ltmp48
	.byte	5                               #   On action: 3
	.uleb128 .Ltmp49-.Lfunc_begin4          # >> Call Site 8 <<
	.uleb128 .Ltmp50-.Ltmp49                #   Call between .Ltmp49 and .Ltmp50
	.uleb128 .Ltmp51-.Lfunc_begin4          #     jumps to .Ltmp51
	.byte	5                               #   On action: 3
	.uleb128 .Ltmp61-.Lfunc_begin4          # >> Call Site 9 <<
	.uleb128 .Ltmp62-.Ltmp61                #   Call between .Ltmp61 and .Ltmp62
	.uleb128 .Ltmp63-.Lfunc_begin4          #     jumps to .Ltmp63
	.byte	7                               #   On action: 4
	.uleb128 .Ltmp64-.Lfunc_begin4          # >> Call Site 10 <<
	.uleb128 .Ltmp65-.Ltmp64                #   Call between .Ltmp64 and .Ltmp65
	.uleb128 .Ltmp66-.Lfunc_begin4          #     jumps to .Ltmp66
	.byte	7                               #   On action: 4
	.uleb128 .Ltmp67-.Lfunc_begin4          # >> Call Site 11 <<
	.uleb128 .Ltmp68-.Ltmp67                #   Call between .Ltmp67 and .Ltmp68
	.uleb128 .Ltmp69-.Lfunc_begin4          #     jumps to .Ltmp69
	.byte	7                               #   On action: 4
	.uleb128 .Ltmp70-.Lfunc_begin4          # >> Call Site 12 <<
	.uleb128 .Ltmp71-.Ltmp70                #   Call between .Ltmp70 and .Ltmp71
	.uleb128 .Ltmp72-.Lfunc_begin4          #     jumps to .Ltmp72
	.byte	5                               #   On action: 3
	.uleb128 .Ltmp101-.Lfunc_begin4         # >> Call Site 13 <<
	.uleb128 .Ltmp102-.Ltmp101              #   Call between .Ltmp101 and .Ltmp102
	.uleb128 .Ltmp103-.Lfunc_begin4         #     jumps to .Ltmp103
	.byte	7                               #   On action: 4
	.uleb128 .Ltmp104-.Lfunc_begin4         # >> Call Site 14 <<
	.uleb128 .Ltmp105-.Ltmp104              #   Call between .Ltmp104 and .Ltmp105
	.uleb128 .Ltmp106-.Lfunc_begin4         #     jumps to .Ltmp106
	.byte	7                               #   On action: 4
	.uleb128 .Ltmp107-.Lfunc_begin4         # >> Call Site 15 <<
	.uleb128 .Ltmp108-.Ltmp107              #   Call between .Ltmp107 and .Ltmp108
	.uleb128 .Ltmp109-.Lfunc_begin4         #     jumps to .Ltmp109
	.byte	7                               #   On action: 4
	.uleb128 .Ltmp73-.Lfunc_begin4          # >> Call Site 16 <<
	.uleb128 .Ltmp74-.Ltmp73                #   Call between .Ltmp73 and .Ltmp74
	.uleb128 .Ltmp75-.Lfunc_begin4          #     jumps to .Ltmp75
	.byte	7                               #   On action: 4
	.uleb128 .Ltmp52-.Lfunc_begin4          # >> Call Site 17 <<
	.uleb128 .Ltmp53-.Ltmp52                #   Call between .Ltmp52 and .Ltmp53
	.uleb128 .Ltmp54-.Lfunc_begin4          #     jumps to .Ltmp54
	.byte	7                               #   On action: 4
	.uleb128 .Ltmp55-.Lfunc_begin4          # >> Call Site 18 <<
	.uleb128 .Ltmp56-.Ltmp55                #   Call between .Ltmp55 and .Ltmp56
	.uleb128 .Ltmp57-.Lfunc_begin4          #     jumps to .Ltmp57
	.byte	7                               #   On action: 4
	.uleb128 .Ltmp27-.Lfunc_begin4          # >> Call Site 19 <<
	.uleb128 .Ltmp28-.Ltmp27                #   Call between .Ltmp27 and .Ltmp28
	.uleb128 .Ltmp29-.Lfunc_begin4          #     jumps to .Ltmp29
	.byte	7                               #   On action: 4
	.uleb128 .Ltmp58-.Lfunc_begin4          # >> Call Site 20 <<
	.uleb128 .Ltmp59-.Ltmp58                #   Call between .Ltmp58 and .Ltmp59
	.uleb128 .Ltmp60-.Lfunc_begin4          #     jumps to .Ltmp60
	.byte	7                               #   On action: 4
	.uleb128 .Ltmp76-.Lfunc_begin4          # >> Call Site 21 <<
	.uleb128 .Ltmp77-.Ltmp76                #   Call between .Ltmp76 and .Ltmp77
	.uleb128 .Ltmp78-.Lfunc_begin4          #     jumps to .Ltmp78
	.byte	7                               #   On action: 4
	.uleb128 .Ltmp77-.Lfunc_begin4          # >> Call Site 22 <<
	.uleb128 .Ltmp87-.Ltmp77                #   Call between .Ltmp77 and .Ltmp87
	.byte	0                               #     has no landing pad
	.byte	0                               #   On action: cleanup
	.uleb128 .Ltmp87-.Lfunc_begin4          # >> Call Site 23 <<
	.uleb128 .Ltmp90-.Ltmp87                #   Call between .Ltmp87 and .Ltmp90
	.uleb128 .Ltmp91-.Lfunc_begin4          #     jumps to .Ltmp91
	.byte	0                               #   On action: cleanup
	.uleb128 .Ltmp95-.Lfunc_begin4          # >> Call Site 24 <<
	.uleb128 .Ltmp96-.Ltmp95                #   Call between .Ltmp95 and .Ltmp96
	.uleb128 .Ltmp97-.Lfunc_begin4          #     jumps to .Ltmp97
	.byte	0                               #   On action: cleanup
	.uleb128 .Ltmp96-.Lfunc_begin4          # >> Call Site 25 <<
	.uleb128 .Ltmp79-.Ltmp96                #   Call between .Ltmp96 and .Ltmp79
	.byte	0                               #     has no landing pad
	.byte	0                               #   On action: cleanup
	.uleb128 .Ltmp79-.Lfunc_begin4          # >> Call Site 26 <<
	.uleb128 .Ltmp80-.Ltmp79                #   Call between .Ltmp79 and .Ltmp80
	.uleb128 .Ltmp81-.Lfunc_begin4          #     jumps to .Ltmp81
	.byte	0                               #   On action: cleanup
	.uleb128 .Ltmp84-.Lfunc_begin4          # >> Call Site 27 <<
	.uleb128 .Ltmp85-.Ltmp84                #   Call between .Ltmp84 and .Ltmp85
	.uleb128 .Ltmp86-.Lfunc_begin4          #     jumps to .Ltmp86
	.byte	0                               #   On action: cleanup
	.uleb128 .Ltmp82-.Lfunc_begin4          # >> Call Site 28 <<
	.uleb128 .Ltmp93-.Ltmp82                #   Call between .Ltmp82 and .Ltmp93
	.uleb128 .Ltmp94-.Lfunc_begin4          #     jumps to .Ltmp94
	.byte	7                               #   On action: 4
	.uleb128 .Ltmp98-.Lfunc_begin4          # >> Call Site 29 <<
	.uleb128 .Ltmp99-.Ltmp98                #   Call between .Ltmp98 and .Ltmp99
	.uleb128 .Ltmp100-.Lfunc_begin4         #     jumps to .Ltmp100
	.byte	7                               #   On action: 4
	.uleb128 .Ltmp99-.Lfunc_begin4          # >> Call Site 30 <<
	.uleb128 .Lfunc_end8-.Ltmp99            #   Call between .Ltmp99 and .Lfunc_end8
	.byte	0                               #     has no landing pad
	.byte	0                               #   On action: cleanup
.Lcst_end4:
	.byte	0                               # >> Action Record 1 <<
                                        #   Cleanup
	.byte	0                               #   No further actions
	.byte	1                               # >> Action Record 2 <<
                                        #   Catch TypeInfo 1
	.byte	125                             #   Continue to action 1
	.byte	2                               # >> Action Record 3 <<
                                        #   Catch TypeInfo 2
	.byte	125                             #   Continue to action 2
	.byte	3                               # >> Action Record 4 <<
                                        #   Catch TypeInfo 3
	.byte	0                               #   No further actions
	.p2align	2, 0x0
                                        # >> Catch TypeInfos <<
	.long	0                               # TypeInfo 3
.Ltmp110:                               # TypeInfo 2
	.long	.L_ZTIN8pybind1117error_already_setE.DW.stub-.Ltmp110
.Ltmp111:                               # TypeInfo 1
	.long	.L_ZTISt9exception.DW.stub-.Ltmp111
.Lttbase3:
	.p2align	2, 0x0
                                        # -- End function
	.section	.text._ZN8pybind116detail13get_internalsEv,"axG",@progbits,_ZN8pybind116detail13get_internalsEv,comdat
	.hidden	_ZN8pybind116detail13get_internalsEv # -- Begin function _ZN8pybind116detail13get_internalsEv
	.weak	_ZN8pybind116detail13get_internalsEv
	.p2align	4, 0x90
	.type	_ZN8pybind116detail13get_internalsEv,@function
_ZN8pybind116detail13get_internalsEv:   # @_ZN8pybind116detail13get_internalsEv
.Lfunc_begin5:
	.cfi_startproc
	.cfi_personality 155, DW.ref.__gxx_personality_v0
	.cfi_lsda 27, .Lexception5
# %bb.0:                                # %entry
	pushq	%r15
	.cfi_def_cfa_offset 16
	pushq	%r14
	.cfi_def_cfa_offset 24
	pushq	%rbx
	.cfi_def_cfa_offset 32
	subq	$96, %rsp
	.cfi_def_cfa_offset 128
	.cfi_offset %rbx, -32
	.cfi_offset %r14, -24
	.cfi_offset %r15, -16
	movq	_ZZN8pybind116detail16get_internals_ppEvE12internals_pp(%rip), %rax
	testq	%rax, %rax
	je	.LBB9_2
# %bb.1:                                # %land.lhs.true
	movq	(%rax), %r15
	testq	%r15, %r15
	jne	.LBB9_36
.LBB9_2:                                # %if.end
	callq	PyGILState_Ensure@PLT
	movl	%eax, %ebx
	leaq	72(%rsp), %rsi
	leaq	80(%rsp), %rdx
.Ltmp112:
	leaq	64(%rsp), %rdi
	callq	PyErr_Fetch@PLT
.Ltmp113:
# %bb.3:                                # %invoke.cont
.Ltmp115:
	leaq	16(%rsp), %rdi
	callq	_ZN8pybind116detail21get_python_state_dictEv
.Ltmp116:
# %bb.4:                                # %invoke.cont3
.Ltmp118:
	leaq	8(%rsp), %rdi
	leaq	16(%rsp), %rsi
	callq	_ZN8pybind114dictC2EONS_6objectE
.Ltmp119:
# %bb.5:                                # %invoke.cont5
.Ltmp124:
	leaq	16(%rsp), %rdi
	callq	_ZNKR8pybind116handle7dec_refEv
.Ltmp125:
# %bb.6:                                # %_ZN8pybind116objectD2Ev.exit
	movq	8(%rsp), %rdi
.Ltmp127:
	leaq	.L.str.52(%rip), %rsi
	callq	_ZN8pybind116detail18dict_getitemstringEP7_objectPKc
.Ltmp128:
# %bb.7:                                # %call.i89.noexc
	testq	%rax, %rax
	je	.LBB9_8
# %bb.13:                               # %if.then9
	incq	(%rax)
	movq	%rax, 16(%rsp)
.Ltmp129:
	movq	%rax, %rdi
	xorl	%esi, %esi
	callq	PyCapsule_GetPointer@PLT
.Ltmp130:
# %bb.14:                               # %call1.i.noexc41
	testq	%rax, %rax
	je	.LBB9_15
# %bb.20:                               # %invoke.cont13
	movq	%rax, _ZZN8pybind116detail16get_internals_ppEvE12internals_pp(%rip)
	jmp	.LBB9_30
.LBB9_8:                                # %land.lhs.true.i
.Ltmp142:
	callq	PyErr_Occurred@PLT
.Ltmp143:
# %bb.9:                                # %call1.i.noexc96
	testq	%rax, %rax
	jne	.LBB9_10
# %bb.29:                               # %invoke.cont7
	movq	$0, 16(%rsp)
.LBB9_30:                               # %if.end15
.Ltmp150:
	leaq	16(%rsp), %rdi
	callq	_ZNKR8pybind116handle7dec_refEv
.Ltmp151:
# %bb.31:                               # %_ZN8pybind116objectD2Ev.exit55
	movq	_ZZN8pybind116detail16get_internals_ppEvE12internals_pp(%rip), %r14
	testq	%r14, %r14
	je	.LBB9_38
# %bb.32:                               # %land.lhs.true19
	movq	(%r14), %r15
	testq	%r15, %r15
	jne	.LBB9_33
	jmp	.LBB9_40
.LBB9_38:                               # %if.then23
.Ltmp153:
	movl	$8, %edi
	callq	_Znwm@PLT
.Ltmp154:
# %bb.39:                               # %invoke.cont25
	movq	%rax, %r14
	movq	$0, (%rax)
	movq	%rax, _ZZN8pybind116detail16get_internals_ppEvE12internals_pp(%rip)
.LBB9_40:                               # %if.end27
.Ltmp156:
	movl	$472, %edi                      # imm = 0x1D8
	callq	_Znwm@PLT
.Ltmp157:
# %bb.41:                               # %invoke.cont29
	movq	%rax, %r15
	leaq	32(%rax), %rdi
	movl	$432, %edx                      # imm = 0x1B0
	xorl	%esi, %esi
	callq	memset@PLT
	leaq	48(%r15), %rax
	movq	%rax, (%r15)
	movq	$1, 8(%r15)
	xorps	%xmm0, %xmm0
	movups	%xmm0, 16(%r15)
	movl	$1065353216, 32(%r15)           # imm = 0x3F800000
	movups	%xmm0, 40(%r15)
	leaq	104(%r15), %rax
	movq	%rax, 56(%r15)
	movq	$1, 64(%r15)
	movups	%xmm0, 72(%r15)
	movl	$1065353216, 88(%r15)           # imm = 0x3F800000
	movups	%xmm0, 96(%r15)
	leaq	160(%r15), %rax
	movq	%rax, 112(%r15)
	movq	$1, 120(%r15)
	movups	%xmm0, 128(%r15)
	movl	$1065353216, 144(%r15)          # imm = 0x3F800000
	movups	%xmm0, 152(%r15)
	leaq	216(%r15), %rax
	movq	%rax, 168(%r15)
	movq	$1, 176(%r15)
	movups	%xmm0, 184(%r15)
	movl	$1065353216, 200(%r15)          # imm = 0x3F800000
	movups	%xmm0, 208(%r15)
	leaq	272(%r15), %rax
	movq	%rax, 224(%r15)
	movq	$1, 232(%r15)
	movups	%xmm0, 240(%r15)
	movl	$1065353216, 256(%r15)          # imm = 0x3F800000
	movups	%xmm0, 264(%r15)
	leaq	328(%r15), %rax
	movq	%rax, 280(%r15)
	movq	$1, 288(%r15)
	movups	%xmm0, 296(%r15)
	movl	$1065353216, 312(%r15)          # imm = 0x3F800000
	movq	%r15, %rax
	addq	$392, %rax                      # imm = 0x188
	movups	%xmm0, 320(%r15)
	movq	$0, 336(%r15)
	movq	%rax, 344(%r15)
	movq	$1, 352(%r15)
	movups	%xmm0, 360(%r15)
	movl	$1065353216, 376(%r15)          # imm = 0x3F800000
	movups	%xmm0, 384(%r15)
	movups	%xmm0, 400(%r15)
	movups	%xmm0, 416(%r15)
	movups	%xmm0, 456(%r15)
	movq	%r15, (%r14)
.Ltmp159:
	callq	PyThreadState_Get@PLT
.Ltmp160:
# %bb.42:                               # %invoke.cont32
.Ltmp161:
	movq	%rax, %r15
	callq	PyThread_tss_alloc@PLT
.Ltmp162:
# %bb.43:                               # %invoke.cont34
	movq	(%r14), %rcx
	movq	%rax, 456(%rcx)
	testq	%rax, %rax
	je	.LBB9_46
# %bb.44:                               # %land.lhs.true37
	movq	(%r14), %rax
	movq	456(%rax), %rdi
.Ltmp163:
	callq	PyThread_tss_create@PLT
.Ltmp164:
# %bb.45:                               # %invoke.cont39
	testl	%eax, %eax
	jne	.LBB9_46
# %bb.50:                               # %if.end44
	movq	(%r14), %rax
	movq	456(%rax), %rdi
.Ltmp165:
	movq	%r15, %rsi
	callq	PyThread_tss_set@PLT
.Ltmp166:
# %bb.51:                               # %invoke.cont46
	movq	16(%r15), %rax
	movq	(%r14), %rcx
	movq	%rax, 464(%rcx)
	movq	_ZZN8pybind116detail16get_internals_ppEvE12internals_pp(%rip), %rsi
.Ltmp167:
	leaq	48(%rsp), %rdi
	xorl	%edx, %edx
	xorl	%ecx, %ecx
	callq	_ZN8pybind117capsuleC2EPKvPKcPFvP7_objectE
.Ltmp168:
# %bb.52:                               # %invoke.cont50
	movq	8(%rsp), %r15
.Ltmp170:
	leaq	.L.str.52(%rip), %rsi
	leaq	56(%rsp), %rdi
	callq	_ZN8pybind113strC2EPKc
.Ltmp171:
# %bb.53:                               # %_ZNK8pybind116detail10object_apiINS_6handleEEixEPKc.exit
	movq	56(%rsp), %rax
	movq	$0, 56(%rsp)
	movq	%r15, 24(%rsp)
	movq	%rax, 32(%rsp)
	movq	$0, 88(%rsp)
	movq	$0, 40(%rsp)
.Ltmp173:
	leaq	88(%rsp), %rdi
	callq	_ZNKR8pybind116handle7dec_refEv
.Ltmp174:
# %bb.54:                               # %_ZN8pybind116objectD2Ev.exit107
.Ltmp176:
	leaq	56(%rsp), %rdi
	callq	_ZNKR8pybind116handle7dec_refEv
.Ltmp177:
# %bb.55:                               # %invoke.cont53
	movq	24(%rsp), %rdi
	movq	32(%rsp), %rsi
	movq	48(%rsp), %rdx
.Ltmp179:
	callq	PyObject_SetItem@PLT
.Ltmp180:
# %bb.56:                               # %call5.i.noexc
	testl	%eax, %eax
	jne	.LBB9_57
# %bb.62:                               # %invoke.cont55
.Ltmp190:
	leaq	40(%rsp), %rdi
	callq	_ZNKR8pybind116handle7dec_refEv
.Ltmp191:
# %bb.63:                               # %_ZN8pybind116objectD2Ev.exit.i
.Ltmp193:
	leaq	32(%rsp), %rdi
	callq	_ZNKR8pybind116handle7dec_refEv
.Ltmp194:
# %bb.64:                               # %_ZN8pybind116detail8accessorINS0_17accessor_policies12generic_itemEED2Ev.exit
.Ltmp196:
	leaq	48(%rsp), %rdi
	callq	_ZNKR8pybind116handle7dec_refEv
.Ltmp197:
# %bb.65:                               # %_ZN8pybind116objectD2Ev.exit66
	movq	(%r14), %r15
.Ltmp199:
	movl	$16, %edi
	callq	_Znwm@PLT
.Ltmp200:
# %bb.66:                               # %invoke.cont62
	leaq	_ZN8pybind116detail19translate_exceptionENSt15__exception_ptr13exception_ptrE(%rip), %rcx
	movq	%rcx, 8(%rax)
	movq	336(%r15), %rcx
	movq	%rcx, (%rax)
	movq	%rax, 336(%r15)
.Ltmp202:
	callq	_ZN8pybind116detail25make_static_property_typeEv
.Ltmp203:
# %bb.67:                               # %invoke.cont64
	movq	(%r14), %rcx
	movq	%rax, 432(%rcx)
.Ltmp204:
	callq	_ZN8pybind116detail22make_default_metaclassEv
.Ltmp205:
# %bb.68:                               # %invoke.cont66
	movq	(%r14), %rcx
	movq	%rax, 440(%rcx)
	movq	(%r14), %rax
	movq	440(%rax), %rdi
.Ltmp206:
	callq	_ZN8pybind116detail21make_object_base_typeEP11_typeobject
.Ltmp207:
# %bb.69:                               # %invoke.cont69
	movq	(%r14), %rcx
	movq	%rax, 448(%rcx)
	movq	_ZZN8pybind116detail16get_internals_ppEvE12internals_pp(%rip), %rax
	movq	(%rax), %r15
.LBB9_33:                               # %if.end73
.Ltmp208:
	leaq	8(%rsp), %rdi
	callq	_ZNKR8pybind116handle7dec_refEv
.Ltmp209:
# %bb.34:                               # %_ZN8pybind116objectD2Ev.exit75
	movq	64(%rsp), %rdi
	movq	72(%rsp), %rsi
	movq	80(%rsp), %rdx
.Ltmp211:
	callq	PyErr_Restore@PLT
.Ltmp212:
# %bb.35:                               # %_ZN8pybind1111error_scopeD2Ev.exit
.Ltmp214:
	movl	%ebx, %edi
	callq	PyGILState_Release@PLT
.Ltmp215:
.LBB9_36:                               # %cleanup
	movq	%r15, %rax
	addq	$96, %rsp
	.cfi_def_cfa_offset 32
	popq	%rbx
	.cfi_def_cfa_offset 24
	popq	%r14
	.cfi_def_cfa_offset 16
	popq	%r15
	.cfi_def_cfa_offset 8
	retq
.LBB9_46:                               # %if.then42
	.cfi_def_cfa_offset 128
.Ltmp217:
	leaq	.L.str.51(%rip), %rdi
	callq	_ZN8pybind1113pybind11_failEPKc
.Ltmp218:
# %bb.47:                               # %invoke.cont43
.LBB9_15:                               # %if.then.i
	movq	PyExc_SystemError@GOTPCREL(%rip), %rax
	movq	(%rax), %rdi
.Ltmp131:
	leaq	.L.str.57(%rip), %rsi
	callq	_ZN8pybind1110raise_fromEP7_objectPKc
.Ltmp132:
# %bb.16:                               # %.noexc
	movl	$24, %edi
	callq	__cxa_allocate_exception@PLT
	movq	%rax, %r15
.Ltmp133:
	movq	%rax, %rdi
	callq	_ZN8pybind1117error_already_setC2Ev
.Ltmp134:
# %bb.17:                               # %invoke.cont.i
.Ltmp136:
	leaq	_ZTIN8pybind1117error_already_setE(%rip), %rsi
	leaq	_ZN8pybind1117error_already_setD2Ev(%rip), %rdx
	movq	%r15, %rdi
	callq	__cxa_throw@PLT
.Ltmp137:
# %bb.18:                               # %.noexc43
.LBB9_57:                               # %if.then.i111
	movl	$24, %edi
	callq	__cxa_allocate_exception@PLT
	movq	%rax, %r15
.Ltmp181:
	movq	%rax, %rdi
	callq	_ZN8pybind1117error_already_setC2Ev
.Ltmp182:
# %bb.58:                               # %invoke.cont.i114
.Ltmp184:
	leaq	_ZTIN8pybind1117error_already_setE(%rip), %rsi
	leaq	_ZN8pybind1117error_already_setD2Ev(%rip), %rdx
	movq	%r15, %rdi
	callq	__cxa_throw@PLT
.Ltmp185:
# %bb.59:                               # %.noexc116
.LBB9_10:                               # %if.then.i91
	movl	$24, %edi
	callq	__cxa_allocate_exception@PLT
	movq	%rax, %r15
.Ltmp144:
	movq	%rax, %rdi
	callq	_ZN8pybind1117error_already_setC2Ev
.Ltmp145:
# %bb.11:                               # %invoke.cont.i94
.Ltmp147:
	leaq	_ZTIN8pybind1117error_already_setE(%rip), %rsi
	leaq	_ZN8pybind1117error_already_setD2Ev(%rip), %rdx
	movq	%r15, %rdi
	callq	__cxa_throw@PLT
.Ltmp148:
# %bb.12:                               # %.noexc98
.LBB9_19:                               # %lpad.i
.Ltmp135:
	movq	%rax, %r14
	movq	%r15, %rdi
	callq	__cxa_free_exception@PLT
	jmp	.LBB9_27
.LBB9_37:                               # %lpad.i93
.Ltmp146:
	movq	%rax, %r14
	movq	%r15, %rdi
	callq	__cxa_free_exception@PLT
	jmp	.LBB9_82
.LBB9_60:                               # %lpad.i113
.Ltmp183:
	movq	%rax, %r14
	movq	%r15, %rdi
	callq	__cxa_free_exception@PLT
	jmp	.LBB9_72
.LBB9_80:                               # %lpad24
.Ltmp155:
	jmp	.LBB9_81
.LBB9_76:                               # %lpad61
.Ltmp201:
	jmp	.LBB9_81
.LBB9_91:                               # %terminate.lpad.i64
.Ltmp198:
	movq	%rax, %rdi
	callq	__clang_call_terminate
.LBB9_90:                               # %terminate.lpad.i2.i
.Ltmp195:
	movq	%rax, %rdi
	callq	__clang_call_terminate
.LBB9_61:                               # %terminate.lpad.i.i
.Ltmp192:
	movq	%rax, %rdi
	callq	__clang_call_terminate
.LBB9_89:                               # %terminate.lpad.i101
.Ltmp178:
	movq	%rax, %rdi
	callq	__clang_call_terminate
.LBB9_88:                               # %terminate.lpad.i105
.Ltmp175:
	movq	%rax, %rdi
	callq	__clang_call_terminate
.LBB9_70:                               # %lpad52
.Ltmp172:
	movq	%rax, %r14
	jmp	.LBB9_73
.LBB9_75:                               # %lpad49
.Ltmp169:
	jmp	.LBB9_81
.LBB9_48:                               # %lpad28
.Ltmp158:
	jmp	.LBB9_81
.LBB9_71:                               # %lpad54
.Ltmp186:
	movq	%rax, %r14
.LBB9_72:                               # %lpad54.body
	leaq	16(%rsp), %rdi
	callq	_ZN8pybind116detail8accessorINS0_17accessor_policies12generic_itemEED2Ev
.LBB9_73:                               # %ehcleanup57
.Ltmp187:
	leaq	48(%rsp), %rdi
	callq	_ZNKR8pybind116handle7dec_refEv
.Ltmp188:
	jmp	.LBB9_82
.LBB9_74:                               # %terminate.lpad.i69
.Ltmp189:
	movq	%rax, %rdi
	callq	__clang_call_terminate
.LBB9_79:                               # %terminate.lpad.i80
.Ltmp216:
	movq	%rax, %rdi
	callq	__clang_call_terminate
.LBB9_78:                               # %terminate.lpad.i78
.Ltmp213:
	movq	%rax, %rdi
	callq	__clang_call_terminate
.LBB9_77:                               # %terminate.lpad.i73
.Ltmp210:
	movq	%rax, %rdi
	callq	__clang_call_terminate
.LBB9_87:                               # %terminate.lpad.i53
.Ltmp152:
	movq	%rax, %rdi
	callq	__clang_call_terminate
.LBB9_86:                               # %terminate.lpad.i
.Ltmp126:
	movq	%rax, %rdi
	callq	__clang_call_terminate
.LBB9_22:                               # %lpad4
.Ltmp120:
	movq	%rax, %r14
.Ltmp121:
	leaq	16(%rsp), %rdi
	callq	_ZNKR8pybind116handle7dec_refEv
.Ltmp122:
	jmp	.LBB9_83
.LBB9_23:                               # %terminate.lpad.i45
.Ltmp123:
	movq	%rax, %rdi
	callq	__clang_call_terminate
.LBB9_24:                               # %lpad2
.Ltmp117:
	movq	%rax, %r14
	jmp	.LBB9_83
.LBB9_21:                               # %lpad
.Ltmp114:
	movq	%rax, %r14
	jmp	.LBB9_84
.LBB9_26:                               # %lpad12
.Ltmp138:
	movq	%rax, %r14
.LBB9_27:                               # %lpad12.body
.Ltmp139:
	leaq	16(%rsp), %rdi
	callq	_ZNKR8pybind116handle7dec_refEv
.Ltmp140:
	jmp	.LBB9_82
.LBB9_28:                               # %terminate.lpad.i49
.Ltmp141:
	movq	%rax, %rdi
	callq	__clang_call_terminate
.LBB9_25:                               # %lpad6
.Ltmp149:
	jmp	.LBB9_81
.LBB9_49:                               # %lpad31
.Ltmp219:
.LBB9_81:                               # %ehcleanup74
	movq	%rax, %r14
.LBB9_82:                               # %ehcleanup74
.Ltmp220:
	leaq	8(%rsp), %rdi
	callq	_ZNKR8pybind116handle7dec_refEv
.Ltmp221:
.LBB9_83:                               # %ehcleanup75
	leaq	64(%rsp), %rdi
	callq	_ZN8pybind1111error_scopeD2Ev
.LBB9_84:                               # %ehcleanup77
.Ltmp223:
	movl	%ebx, %edi
	callq	PyGILState_Release@PLT
.Ltmp224:
# %bb.85:                               # %_ZZN8pybind116detail13get_internalsEvEN24gil_scoped_acquire_localD2Ev.exit88
	movq	%r14, %rdi
	callq	_Unwind_Resume@PLT
.LBB9_93:                               # %terminate.lpad.i86
.Ltmp225:
	movq	%rax, %rdi
	callq	__clang_call_terminate
.LBB9_92:                               # %terminate.lpad.i83
.Ltmp222:
	movq	%rax, %rdi
	callq	__clang_call_terminate
.Lfunc_end9:
	.size	_ZN8pybind116detail13get_internalsEv, .Lfunc_end9-_ZN8pybind116detail13get_internalsEv
	.cfi_endproc
	.section	.gcc_except_table._ZN8pybind116detail13get_internalsEv,"aG",@progbits,_ZN8pybind116detail13get_internalsEv,comdat
	.p2align	2, 0x0
GCC_except_table9:
.Lexception5:
	.byte	255                             # @LPStart Encoding = omit
	.byte	155                             # @TType Encoding = indirect pcrel sdata4
	.uleb128 .Lttbase4-.Lttbaseref4
.Lttbaseref4:
	.byte	1                               # Call site Encoding = uleb128
	.uleb128 .Lcst_end5-.Lcst_begin5
.Lcst_begin5:
	.uleb128 .Lfunc_begin5-.Lfunc_begin5    # >> Call Site 1 <<
	.uleb128 .Ltmp112-.Lfunc_begin5         #   Call between .Lfunc_begin5 and .Ltmp112
	.byte	0                               #     has no landing pad
	.byte	0                               #   On action: cleanup
	.uleb128 .Ltmp112-.Lfunc_begin5         # >> Call Site 2 <<
	.uleb128 .Ltmp113-.Ltmp112              #   Call between .Ltmp112 and .Ltmp113
	.uleb128 .Ltmp114-.Lfunc_begin5         #     jumps to .Ltmp114
	.byte	0                               #   On action: cleanup
	.uleb128 .Ltmp115-.Lfunc_begin5         # >> Call Site 3 <<
	.uleb128 .Ltmp116-.Ltmp115              #   Call between .Ltmp115 and .Ltmp116
	.uleb128 .Ltmp117-.Lfunc_begin5         #     jumps to .Ltmp117
	.byte	0                               #   On action: cleanup
	.uleb128 .Ltmp118-.Lfunc_begin5         # >> Call Site 4 <<
	.uleb128 .Ltmp119-.Ltmp118              #   Call between .Ltmp118 and .Ltmp119
	.uleb128 .Ltmp120-.Lfunc_begin5         #     jumps to .Ltmp120
	.byte	0                               #   On action: cleanup
	.uleb128 .Ltmp124-.Lfunc_begin5         # >> Call Site 5 <<
	.uleb128 .Ltmp125-.Ltmp124              #   Call between .Ltmp124 and .Ltmp125
	.uleb128 .Ltmp126-.Lfunc_begin5         #     jumps to .Ltmp126
	.byte	1                               #   On action: 1
	.uleb128 .Ltmp127-.Lfunc_begin5         # >> Call Site 6 <<
	.uleb128 .Ltmp128-.Ltmp127              #   Call between .Ltmp127 and .Ltmp128
	.uleb128 .Ltmp149-.Lfunc_begin5         #     jumps to .Ltmp149
	.byte	0                               #   On action: cleanup
	.uleb128 .Ltmp129-.Lfunc_begin5         # >> Call Site 7 <<
	.uleb128 .Ltmp130-.Ltmp129              #   Call between .Ltmp129 and .Ltmp130
	.uleb128 .Ltmp138-.Lfunc_begin5         #     jumps to .Ltmp138
	.byte	0                               #   On action: cleanup
	.uleb128 .Ltmp142-.Lfunc_begin5         # >> Call Site 8 <<
	.uleb128 .Ltmp143-.Ltmp142              #   Call between .Ltmp142 and .Ltmp143
	.uleb128 .Ltmp149-.Lfunc_begin5         #     jumps to .Ltmp149
	.byte	0                               #   On action: cleanup
	.uleb128 .Ltmp150-.Lfunc_begin5         # >> Call Site 9 <<
	.uleb128 .Ltmp151-.Ltmp150              #   Call between .Ltmp150 and .Ltmp151
	.uleb128 .Ltmp152-.Lfunc_begin5         #     jumps to .Ltmp152
	.byte	1                               #   On action: 1
	.uleb128 .Ltmp153-.Lfunc_begin5         # >> Call Site 10 <<
	.uleb128 .Ltmp154-.Ltmp153              #   Call between .Ltmp153 and .Ltmp154
	.uleb128 .Ltmp155-.Lfunc_begin5         #     jumps to .Ltmp155
	.byte	0                               #   On action: cleanup
	.uleb128 .Ltmp156-.Lfunc_begin5         # >> Call Site 11 <<
	.uleb128 .Ltmp157-.Ltmp156              #   Call between .Ltmp156 and .Ltmp157
	.uleb128 .Ltmp158-.Lfunc_begin5         #     jumps to .Ltmp158
	.byte	0                               #   On action: cleanup
	.uleb128 .Ltmp157-.Lfunc_begin5         # >> Call Site 12 <<
	.uleb128 .Ltmp159-.Ltmp157              #   Call between .Ltmp157 and .Ltmp159
	.byte	0                               #     has no landing pad
	.byte	0                               #   On action: cleanup
	.uleb128 .Ltmp159-.Lfunc_begin5         # >> Call Site 13 <<
	.uleb128 .Ltmp166-.Ltmp159              #   Call between .Ltmp159 and .Ltmp166
	.uleb128 .Ltmp219-.Lfunc_begin5         #     jumps to .Ltmp219
	.byte	0                               #   On action: cleanup
	.uleb128 .Ltmp167-.Lfunc_begin5         # >> Call Site 14 <<
	.uleb128 .Ltmp168-.Ltmp167              #   Call between .Ltmp167 and .Ltmp168
	.uleb128 .Ltmp169-.Lfunc_begin5         #     jumps to .Ltmp169
	.byte	0                               #   On action: cleanup
	.uleb128 .Ltmp170-.Lfunc_begin5         # >> Call Site 15 <<
	.uleb128 .Ltmp171-.Ltmp170              #   Call between .Ltmp170 and .Ltmp171
	.uleb128 .Ltmp172-.Lfunc_begin5         #     jumps to .Ltmp172
	.byte	0                               #   On action: cleanup
	.uleb128 .Ltmp173-.Lfunc_begin5         # >> Call Site 16 <<
	.uleb128 .Ltmp174-.Ltmp173              #   Call between .Ltmp173 and .Ltmp174
	.uleb128 .Ltmp175-.Lfunc_begin5         #     jumps to .Ltmp175
	.byte	1                               #   On action: 1
	.uleb128 .Ltmp176-.Lfunc_begin5         # >> Call Site 17 <<
	.uleb128 .Ltmp177-.Ltmp176              #   Call between .Ltmp176 and .Ltmp177
	.uleb128 .Ltmp178-.Lfunc_begin5         #     jumps to .Ltmp178
	.byte	1                               #   On action: 1
	.uleb128 .Ltmp179-.Lfunc_begin5         # >> Call Site 18 <<
	.uleb128 .Ltmp180-.Ltmp179              #   Call between .Ltmp179 and .Ltmp180
	.uleb128 .Ltmp186-.Lfunc_begin5         #     jumps to .Ltmp186
	.byte	0                               #   On action: cleanup
	.uleb128 .Ltmp190-.Lfunc_begin5         # >> Call Site 19 <<
	.uleb128 .Ltmp191-.Ltmp190              #   Call between .Ltmp190 and .Ltmp191
	.uleb128 .Ltmp192-.Lfunc_begin5         #     jumps to .Ltmp192
	.byte	1                               #   On action: 1
	.uleb128 .Ltmp193-.Lfunc_begin5         # >> Call Site 20 <<
	.uleb128 .Ltmp194-.Ltmp193              #   Call between .Ltmp193 and .Ltmp194
	.uleb128 .Ltmp195-.Lfunc_begin5         #     jumps to .Ltmp195
	.byte	1                               #   On action: 1
	.uleb128 .Ltmp196-.Lfunc_begin5         # >> Call Site 21 <<
	.uleb128 .Ltmp197-.Ltmp196              #   Call between .Ltmp196 and .Ltmp197
	.uleb128 .Ltmp198-.Lfunc_begin5         #     jumps to .Ltmp198
	.byte	1                               #   On action: 1
	.uleb128 .Ltmp199-.Lfunc_begin5         # >> Call Site 22 <<
	.uleb128 .Ltmp200-.Ltmp199              #   Call between .Ltmp199 and .Ltmp200
	.uleb128 .Ltmp201-.Lfunc_begin5         #     jumps to .Ltmp201
	.byte	0                               #   On action: cleanup
	.uleb128 .Ltmp202-.Lfunc_begin5         # >> Call Site 23 <<
	.uleb128 .Ltmp207-.Ltmp202              #   Call between .Ltmp202 and .Ltmp207
	.uleb128 .Ltmp219-.Lfunc_begin5         #     jumps to .Ltmp219
	.byte	0                               #   On action: cleanup
	.uleb128 .Ltmp208-.Lfunc_begin5         # >> Call Site 24 <<
	.uleb128 .Ltmp209-.Ltmp208              #   Call between .Ltmp208 and .Ltmp209
	.uleb128 .Ltmp210-.Lfunc_begin5         #     jumps to .Ltmp210
	.byte	1                               #   On action: 1
	.uleb128 .Ltmp211-.Lfunc_begin5         # >> Call Site 25 <<
	.uleb128 .Ltmp212-.Ltmp211              #   Call between .Ltmp211 and .Ltmp212
	.uleb128 .Ltmp213-.Lfunc_begin5         #     jumps to .Ltmp213
	.byte	1                               #   On action: 1
	.uleb128 .Ltmp214-.Lfunc_begin5         # >> Call Site 26 <<
	.uleb128 .Ltmp215-.Ltmp214              #   Call between .Ltmp214 and .Ltmp215
	.uleb128 .Ltmp216-.Lfunc_begin5         #     jumps to .Ltmp216
	.byte	1                               #   On action: 1
	.uleb128 .Ltmp217-.Lfunc_begin5         # >> Call Site 27 <<
	.uleb128 .Ltmp218-.Ltmp217              #   Call between .Ltmp217 and .Ltmp218
	.uleb128 .Ltmp219-.Lfunc_begin5         #     jumps to .Ltmp219
	.byte	0                               #   On action: cleanup
	.uleb128 .Ltmp131-.Lfunc_begin5         # >> Call Site 28 <<
	.uleb128 .Ltmp132-.Ltmp131              #   Call between .Ltmp131 and .Ltmp132
	.uleb128 .Ltmp138-.Lfunc_begin5         #     jumps to .Ltmp138
	.byte	0                               #   On action: cleanup
	.uleb128 .Ltmp132-.Lfunc_begin5         # >> Call Site 29 <<
	.uleb128 .Ltmp133-.Ltmp132              #   Call between .Ltmp132 and .Ltmp133
	.byte	0                               #     has no landing pad
	.byte	0                               #   On action: cleanup
	.uleb128 .Ltmp133-.Lfunc_begin5         # >> Call Site 30 <<
	.uleb128 .Ltmp134-.Ltmp133              #   Call between .Ltmp133 and .Ltmp134
	.uleb128 .Ltmp135-.Lfunc_begin5         #     jumps to .Ltmp135
	.byte	0                               #   On action: cleanup
	.uleb128 .Ltmp136-.Lfunc_begin5         # >> Call Site 31 <<
	.uleb128 .Ltmp137-.Ltmp136              #   Call between .Ltmp136 and .Ltmp137
	.uleb128 .Ltmp138-.Lfunc_begin5         #     jumps to .Ltmp138
	.byte	0                               #   On action: cleanup
	.uleb128 .Ltmp137-.Lfunc_begin5         # >> Call Site 32 <<
	.uleb128 .Ltmp181-.Ltmp137              #   Call between .Ltmp137 and .Ltmp181
	.byte	0                               #     has no landing pad
	.byte	0                               #   On action: cleanup
	.uleb128 .Ltmp181-.Lfunc_begin5         # >> Call Site 33 <<
	.uleb128 .Ltmp182-.Ltmp181              #   Call between .Ltmp181 and .Ltmp182
	.uleb128 .Ltmp183-.Lfunc_begin5         #     jumps to .Ltmp183
	.byte	0                               #   On action: cleanup
	.uleb128 .Ltmp184-.Lfunc_begin5         # >> Call Site 34 <<
	.uleb128 .Ltmp185-.Ltmp184              #   Call between .Ltmp184 and .Ltmp185
	.uleb128 .Ltmp186-.Lfunc_begin5         #     jumps to .Ltmp186
	.byte	0                               #   On action: cleanup
	.uleb128 .Ltmp185-.Lfunc_begin5         # >> Call Site 35 <<
	.uleb128 .Ltmp144-.Ltmp185              #   Call between .Ltmp185 and .Ltmp144
	.byte	0                               #     has no landing pad
	.byte	0                               #   On action: cleanup
	.uleb128 .Ltmp144-.Lfunc_begin5         # >> Call Site 36 <<
	.uleb128 .Ltmp145-.Ltmp144              #   Call between .Ltmp144 and .Ltmp145
	.uleb128 .Ltmp146-.Lfunc_begin5         #     jumps to .Ltmp146
	.byte	0                               #   On action: cleanup
	.uleb128 .Ltmp147-.Lfunc_begin5         # >> Call Site 37 <<
	.uleb128 .Ltmp148-.Ltmp147              #   Call between .Ltmp147 and .Ltmp148
	.uleb128 .Ltmp149-.Lfunc_begin5         #     jumps to .Ltmp149
	.byte	0                               #   On action: cleanup
	.uleb128 .Ltmp148-.Lfunc_begin5         # >> Call Site 38 <<
	.uleb128 .Ltmp187-.Ltmp148              #   Call between .Ltmp148 and .Ltmp187
	.byte	0                               #     has no landing pad
	.byte	0                               #   On action: cleanup
	.uleb128 .Ltmp187-.Lfunc_begin5         # >> Call Site 39 <<
	.uleb128 .Ltmp188-.Ltmp187              #   Call between .Ltmp187 and .Ltmp188
	.uleb128 .Ltmp189-.Lfunc_begin5         #     jumps to .Ltmp189
	.byte	1                               #   On action: 1
	.uleb128 .Ltmp121-.Lfunc_begin5         # >> Call Site 40 <<
	.uleb128 .Ltmp122-.Ltmp121              #   Call between .Ltmp121 and .Ltmp122
	.uleb128 .Ltmp123-.Lfunc_begin5         #     jumps to .Ltmp123
	.byte	1                               #   On action: 1
	.uleb128 .Ltmp139-.Lfunc_begin5         # >> Call Site 41 <<
	.uleb128 .Ltmp140-.Ltmp139              #   Call between .Ltmp139 and .Ltmp140
	.uleb128 .Ltmp141-.Lfunc_begin5         #     jumps to .Ltmp141
	.byte	1                               #   On action: 1
	.uleb128 .Ltmp220-.Lfunc_begin5         # >> Call Site 42 <<
	.uleb128 .Ltmp221-.Ltmp220              #   Call between .Ltmp220 and .Ltmp221
	.uleb128 .Ltmp222-.Lfunc_begin5         #     jumps to .Ltmp222
	.byte	1                               #   On action: 1
	.uleb128 .Ltmp223-.Lfunc_begin5         # >> Call Site 43 <<
	.uleb128 .Ltmp224-.Ltmp223              #   Call between .Ltmp223 and .Ltmp224
	.uleb128 .Ltmp225-.Lfunc_begin5         #     jumps to .Ltmp225
	.byte	1                               #   On action: 1
	.uleb128 .Ltmp224-.Lfunc_begin5         # >> Call Site 44 <<
	.uleb128 .Lfunc_end9-.Ltmp224           #   Call between .Ltmp224 and .Lfunc_end9
	.byte	0                               #     has no landing pad
	.byte	0                               #   On action: cleanup
.Lcst_end5:
	.byte	1                               # >> Action Record 1 <<
                                        #   Catch TypeInfo 1
	.byte	0                               #   No further actions
	.p2align	2, 0x0
                                        # >> Catch TypeInfos <<
	.long	0                               # TypeInfo 1
.Lttbase4:
	.p2align	2, 0x0
                                        # -- End function
	.section	.text._ZN8pybind117module_23create_extension_moduleEPKcS2_P11PyModuleDefNS_16mod_gil_not_usedE,"axG",@progbits,_ZN8pybind117module_23create_extension_moduleEPKcS2_P11PyModuleDefNS_16mod_gil_not_usedE,comdat
	.hidden	_ZN8pybind117module_23create_extension_moduleEPKcS2_P11PyModuleDefNS_16mod_gil_not_usedE # -- Begin function _ZN8pybind117module_23create_extension_moduleEPKcS2_P11PyModuleDefNS_16mod_gil_not_usedE
	.weak	_ZN8pybind117module_23create_extension_moduleEPKcS2_P11PyModuleDefNS_16mod_gil_not_usedE
	.p2align	4, 0x90
	.type	_ZN8pybind117module_23create_extension_moduleEPKcS2_P11PyModuleDefNS_16mod_gil_not_usedE,@function
_ZN8pybind117module_23create_extension_moduleEPKcS2_P11PyModuleDefNS_16mod_gil_not_usedE: # @_ZN8pybind117module_23create_extension_moduleEPKcS2_P11PyModuleDefNS_16mod_gil_not_usedE
.Lfunc_begin6:
	.cfi_startproc
	.cfi_personality 155, DW.ref.__gxx_personality_v0
	.cfi_lsda 27, .Lexception6
# %bb.0:                                # %entry
	pushq	%r14
	.cfi_def_cfa_offset 16
	pushq	%rbx
	.cfi_def_cfa_offset 24
	pushq	%rax
	.cfi_def_cfa_offset 32
	.cfi_offset %rbx, -24
	.cfi_offset %r14, -16
	movq	$1, (%rcx)
	xorps	%xmm0, %xmm0
	movups	%xmm0, 8(%rcx)
	movups	%xmm0, 24(%rcx)
	movq	%rsi, 40(%rcx)
	xorl	%eax, %eax
	cmpb	$0, _ZZN8pybind117options12global_stateEvE8instance(%rip)
	movq	%rdi, %rbx
	cmovneq	%rdx, %rax
	movq	%rax, 48(%rcx)
	movq	$-1, 56(%rcx)
	movups	%xmm0, 64(%rcx)
	movups	%xmm0, 80(%rcx)
	movq	$0, 96(%rcx)
	movq	%rcx, %rdi
	movl	$1013, %esi                     # imm = 0x3F5
	callq	PyModule_Create2@PLT
	testq	%rax, %rax
	je	.LBB10_1
# %bb.6:                                # %if.end4
	movq	%rax, (%rbx)
	movq	%rbx, %rdi
	callq	_ZNKR8pybind116handle7inc_refEv
	movq	%rbx, %rax
	addq	$8, %rsp
	.cfi_def_cfa_offset 24
	popq	%rbx
	.cfi_def_cfa_offset 16
	popq	%r14
	.cfi_def_cfa_offset 8
	retq
.LBB10_1:                               # %if.then
	.cfi_def_cfa_offset 32
	callq	PyErr_Occurred@PLT
	testq	%rax, %rax
	jne	.LBB10_2
# %bb.5:                                # %if.end
	leaq	.L.str.162(%rip), %rdi
	callq	_ZN8pybind1113pybind11_failEPKc
.LBB10_2:                               # %if.then3
	movl	$24, %edi
	callq	__cxa_allocate_exception@PLT
	movq	%rax, %rbx
.Ltmp226:
	movq	%rax, %rdi
	callq	_ZN8pybind1117error_already_setC2Ev
.Ltmp227:
# %bb.3:                                # %invoke.cont
	leaq	_ZTIN8pybind1117error_already_setE(%rip), %rsi
	leaq	_ZN8pybind1117error_already_setD2Ev(%rip), %rdx
	movq	%rbx, %rdi
	callq	__cxa_throw@PLT
.LBB10_4:                               # %lpad
.Ltmp228:
	movq	%rax, %r14
	movq	%rbx, %rdi
	callq	__cxa_free_exception@PLT
	movq	%r14, %rdi
	callq	_Unwind_Resume@PLT
.Lfunc_end10:
	.size	_ZN8pybind117module_23create_extension_moduleEPKcS2_P11PyModuleDefNS_16mod_gil_not_usedE, .Lfunc_end10-_ZN8pybind117module_23create_extension_moduleEPKcS2_P11PyModuleDefNS_16mod_gil_not_usedE
	.cfi_endproc
	.section	.gcc_except_table._ZN8pybind117module_23create_extension_moduleEPKcS2_P11PyModuleDefNS_16mod_gil_not_usedE,"aG",@progbits,_ZN8pybind117module_23create_extension_moduleEPKcS2_P11PyModuleDefNS_16mod_gil_not_usedE,comdat
	.p2align	2, 0x0
GCC_except_table10:
.Lexception6:
	.byte	255                             # @LPStart Encoding = omit
	.byte	255                             # @TType Encoding = omit
	.byte	1                               # Call site Encoding = uleb128
	.uleb128 .Lcst_end6-.Lcst_begin6
.Lcst_begin6:
	.uleb128 .Lfunc_begin6-.Lfunc_begin6    # >> Call Site 1 <<
	.uleb128 .Ltmp226-.Lfunc_begin6         #   Call between .Lfunc_begin6 and .Ltmp226
	.byte	0                               #     has no landing pad
	.byte	0                               #   On action: cleanup
	.uleb128 .Ltmp226-.Lfunc_begin6         # >> Call Site 2 <<
	.uleb128 .Ltmp227-.Ltmp226              #   Call between .Ltmp226 and .Ltmp227
	.uleb128 .Ltmp228-.Lfunc_begin6         #     jumps to .Ltmp228
	.byte	0                               #   On action: cleanup
	.uleb128 .Ltmp227-.Lfunc_begin6         # >> Call Site 3 <<
	.uleb128 .Lfunc_end10-.Ltmp227          #   Call between .Ltmp227 and .Lfunc_end10
	.byte	0                               #     has no landing pad
	.byte	0                               #   On action: cleanup
.Lcst_end6:
	.p2align	2, 0x0
                                        # -- End function
	.section	.text._ZN8pybind1117error_already_setD2Ev,"axG",@progbits,_ZN8pybind1117error_already_setD2Ev,comdat
	.hidden	_ZN8pybind1117error_already_setD2Ev # -- Begin function _ZN8pybind1117error_already_setD2Ev
	.weak	_ZN8pybind1117error_already_setD2Ev
	.p2align	4, 0x90
	.type	_ZN8pybind1117error_already_setD2Ev,@function
_ZN8pybind1117error_already_setD2Ev:    # @_ZN8pybind1117error_already_setD2Ev
	.cfi_startproc
# %bb.0:                                # %entry
	pushq	%r15
	.cfi_def_cfa_offset 16
	pushq	%r14
	.cfi_def_cfa_offset 24
	pushq	%rbx
	.cfi_def_cfa_offset 32
	.cfi_offset %rbx, -32
	.cfi_offset %r14, -24
	.cfi_offset %r15, -16
	leaq	_ZTVN8pybind1117error_already_setE+16(%rip), %rax
	movq	%rax, (%rdi)
	movq	16(%rdi), %rbx
	testq	%rbx, %rbx
	je	.LBB11_10
# %bb.1:                                # %if.then.i.i
	movq	__libc_single_threaded@GOTPCREL(%rip), %r15
	cmpb	$0, (%r15)
	je	.LBB11_3
# %bb.2:                                # %if.then.i.i.i.i
	movl	8(%rbx), %eax
	leal	-1(%rax), %ecx
	movl	%ecx, 8(%rbx)
	cmpl	$1, %eax
	je	.LBB11_5
.LBB11_10:                              # %_ZNSt12__shared_ptrIN8pybind116detail25error_fetch_and_normalizeELN9__gnu_cxx12_Lock_policyE2EED2Ev.exit
	popq	%rbx
	.cfi_def_cfa_offset 24
	popq	%r14
	.cfi_def_cfa_offset 16
	popq	%r15
	.cfi_def_cfa_offset 8
	jmp	_ZNSt9exceptionD2Ev@PLT         # TAILCALL
.LBB11_3:                               # %if.else.i.i.i.i
	.cfi_def_cfa_offset 32
	movl	$-1, %eax
	lock		xaddl	%eax, 8(%rbx)
	cmpl	$1, %eax
	jne	.LBB11_10
.LBB11_5:                               # %if.then.i.i.i
	movq	%rdi, %r14
	movq	(%rbx), %rax
	movq	%rbx, %rdi
	callq	*16(%rax)
	cmpb	$0, (%r15)
	je	.LBB11_7
# %bb.6:                                # %if.then.i2.i.i.i
	movl	12(%rbx), %eax
	leal	-1(%rax), %ecx
	movl	%ecx, 12(%rbx)
	cmpl	$1, %eax
	movq	%r14, %rdi
	jne	.LBB11_10
	jmp	.LBB11_9
.LBB11_7:                               # %if.else.i5.i.i.i
	movl	$-1, %eax
	lock		xaddl	%eax, 12(%rbx)
	cmpl	$1, %eax
	movq	%r14, %rdi
	jne	.LBB11_10
.LBB11_9:                               # %if.then5.i.i.i
	movq	(%rbx), %rax
	movq	%rbx, %rdi
	callq	*24(%rax)
	movq	%r14, %rdi
	popq	%rbx
	.cfi_def_cfa_offset 24
	popq	%r14
	.cfi_def_cfa_offset 16
	popq	%r15
	.cfi_def_cfa_offset 8
	jmp	_ZNSt9exceptionD2Ev@PLT         # TAILCALL
.Lfunc_end11:
	.size	_ZN8pybind1117error_already_setD2Ev, .Lfunc_end11-_ZN8pybind1117error_already_setD2Ev
	.cfi_endproc
                                        # -- End function
	.section	.text._ZN8pybind1117error_already_setD0Ev,"axG",@progbits,_ZN8pybind1117error_already_setD0Ev,comdat
	.hidden	_ZN8pybind1117error_already_setD0Ev # -- Begin function _ZN8pybind1117error_already_setD0Ev
	.weak	_ZN8pybind1117error_already_setD0Ev
	.p2align	4, 0x90
	.type	_ZN8pybind1117error_already_setD0Ev,@function
_ZN8pybind1117error_already_setD0Ev:    # @_ZN8pybind1117error_already_setD0Ev
	.cfi_startproc
# %bb.0:                                # %entry
	pushq	%r15
	.cfi_def_cfa_offset 16
	pushq	%r14
	.cfi_def_cfa_offset 24
	pushq	%rbx
	.cfi_def_cfa_offset 32
	.cfi_offset %rbx, -32
	.cfi_offset %r14, -24
	.cfi_offset %r15, -16
	movq	%rdi, %rbx
	leaq	_ZTVN8pybind1117error_already_setE+16(%rip), %rax
	movq	%rax, (%rdi)
	movq	16(%rdi), %r14
	testq	%r14, %r14
	je	.LBB12_10
# %bb.1:                                # %if.then.i.i.i
	movq	__libc_single_threaded@GOTPCREL(%rip), %r15
	cmpb	$0, (%r15)
	je	.LBB12_3
# %bb.2:                                # %if.then.i.i.i.i.i
	movl	8(%r14), %eax
	leal	-1(%rax), %ecx
	movl	%ecx, 8(%r14)
	cmpl	$1, %eax
	je	.LBB12_5
	jmp	.LBB12_10
.LBB12_3:                               # %if.else.i.i.i.i.i
	movl	$-1, %eax
	lock		xaddl	%eax, 8(%r14)
	cmpl	$1, %eax
	jne	.LBB12_10
.LBB12_5:                               # %if.then.i.i.i.i
	movq	(%r14), %rax
	movq	%r14, %rdi
	callq	*16(%rax)
	cmpb	$0, (%r15)
	je	.LBB12_7
# %bb.6:                                # %if.then.i2.i.i.i.i
	movl	12(%r14), %eax
	leal	-1(%rax), %ecx
	movl	%ecx, 12(%r14)
	cmpl	$1, %eax
	jne	.LBB12_10
.LBB12_9:                               # %if.then5.i.i.i.i
	movq	(%r14), %rax
	movq	%r14, %rdi
	callq	*24(%rax)
.LBB12_10:                              # %_ZN8pybind1117error_already_setD2Ev.exit
	movq	%rbx, %rdi
	callq	_ZNSt9exceptionD2Ev@PLT
	movl	$24, %esi
	movq	%rbx, %rdi
	popq	%rbx
	.cfi_def_cfa_offset 24
	popq	%r14
	.cfi_def_cfa_offset 16
	popq	%r15
	.cfi_def_cfa_offset 8
	jmp	_ZdlPvm@PLT                     # TAILCALL
.LBB12_7:                               # %if.else.i5.i.i.i.i
	.cfi_def_cfa_offset 32
	movl	$-1, %eax
	lock		xaddl	%eax, 12(%r14)
	cmpl	$1, %eax
	je	.LBB12_9
	jmp	.LBB12_10
.Lfunc_end12:
	.size	_ZN8pybind1117error_already_setD0Ev, .Lfunc_end12-_ZN8pybind1117error_already_setD0Ev
	.cfi_endproc
                                        # -- End function
	.section	.text._ZN8pybind1113pybind11_failEPKc,"axG",@progbits,_ZN8pybind1113pybind11_failEPKc,comdat
	.hidden	_ZN8pybind1113pybind11_failEPKc # -- Begin function _ZN8pybind1113pybind11_failEPKc
	.weak	_ZN8pybind1113pybind11_failEPKc
	.p2align	4, 0x90
	.type	_ZN8pybind1113pybind11_failEPKc,@function
_ZN8pybind1113pybind11_failEPKc:        # @_ZN8pybind1113pybind11_failEPKc
.Lfunc_begin7:
	.cfi_startproc
	.cfi_personality 155, DW.ref.__gxx_personality_v0
	.cfi_lsda 27, .Lexception7
# %bb.0:                                # %entry
	pushq	%r14
	.cfi_def_cfa_offset 16
	pushq	%rbx
	.cfi_def_cfa_offset 24
	pushq	%rax
	.cfi_def_cfa_offset 32
	.cfi_offset %rbx, -24
	.cfi_offset %r14, -16
	movq	%rdi, %r14
	callq	PyErr_Occurred@PLT
	testq	%rax, %rax
	jne	.LBB13_4
# %bb.1:                                # %cond.end
	movl	$16, %edi
	callq	__cxa_allocate_exception@PLT
	movq	%rax, %rbx
.Ltmp229:
	movq	%rax, %rdi
	movq	%r14, %rsi
	callq	_ZNSt13runtime_errorC1EPKc@PLT
.Ltmp230:
# %bb.2:                                # %invoke.cont
	movq	_ZTISt13runtime_error@GOTPCREL(%rip), %rsi
	movq	_ZNSt13runtime_errorD1Ev@GOTPCREL(%rip), %rdx
	movq	%rbx, %rdi
	callq	__cxa_throw@PLT
.LBB13_4:                               # %cond.false
	leaq	.L.str.5(%rip), %rdi
	leaq	.L.str.6(%rip), %rsi
	leaq	.L__PRETTY_FUNCTION__._ZN8pybind1113pybind11_failEPKc(%rip), %rcx
	movl	$1046, %edx                     # imm = 0x416
	callq	__assert_fail@PLT
.LBB13_3:                               # %lpad
.Ltmp231:
	movq	%rax, %r14
	movq	%rbx, %rdi
	callq	__cxa_free_exception@PLT
	movq	%r14, %rdi
	callq	_Unwind_Resume@PLT
.Lfunc_end13:
	.size	_ZN8pybind1113pybind11_failEPKc, .Lfunc_end13-_ZN8pybind1113pybind11_failEPKc
	.cfi_endproc
	.section	.gcc_except_table._ZN8pybind1113pybind11_failEPKc,"aG",@progbits,_ZN8pybind1113pybind11_failEPKc,comdat
	.p2align	2, 0x0
GCC_except_table13:
.Lexception7:
	.byte	255                             # @LPStart Encoding = omit
	.byte	255                             # @TType Encoding = omit
	.byte	1                               # Call site Encoding = uleb128
	.uleb128 .Lcst_end7-.Lcst_begin7
.Lcst_begin7:
	.uleb128 .Lfunc_begin7-.Lfunc_begin7    # >> Call Site 1 <<
	.uleb128 .Ltmp229-.Lfunc_begin7         #   Call between .Lfunc_begin7 and .Ltmp229
	.byte	0                               #     has no landing pad
	.byte	0                               #   On action: cleanup
	.uleb128 .Ltmp229-.Lfunc_begin7         # >> Call Site 2 <<
	.uleb128 .Ltmp230-.Ltmp229              #   Call between .Ltmp229 and .Ltmp230
	.uleb128 .Ltmp231-.Lfunc_begin7         #     jumps to .Ltmp231
	.byte	0                               #   On action: cleanup
	.uleb128 .Ltmp230-.Lfunc_begin7         # >> Call Site 3 <<
	.uleb128 .Lfunc_end13-.Ltmp230          #   Call between .Ltmp230 and .Lfunc_end13
	.byte	0                               #     has no landing pad
	.byte	0                               #   On action: cleanup
.Lcst_end7:
	.p2align	2, 0x0
                                        # -- End function
	.section	.text._ZStplIcSt11char_traitsIcESaIcEENSt7__cxx1112basic_stringIT_T0_T1_EEPKS5_OS8_,"axG",@progbits,_ZStplIcSt11char_traitsIcESaIcEENSt7__cxx1112basic_stringIT_T0_T1_EEPKS5_OS8_,comdat
	.weak	_ZStplIcSt11char_traitsIcESaIcEENSt7__cxx1112basic_stringIT_T0_T1_EEPKS5_OS8_ # -- Begin function _ZStplIcSt11char_traitsIcESaIcEENSt7__cxx1112basic_stringIT_T0_T1_EEPKS5_OS8_
	.p2align	4, 0x90
	.type	_ZStplIcSt11char_traitsIcESaIcEENSt7__cxx1112basic_stringIT_T0_T1_EEPKS5_OS8_,@function
_ZStplIcSt11char_traitsIcESaIcEENSt7__cxx1112basic_stringIT_T0_T1_EEPKS5_OS8_: # @_ZStplIcSt11char_traitsIcESaIcEENSt7__cxx1112basic_stringIT_T0_T1_EEPKS5_OS8_
	.cfi_startproc
# %bb.0:                                # %entry
	pushq	%r15
	.cfi_def_cfa_offset 16
	pushq	%r14
	.cfi_def_cfa_offset 24
	pushq	%rbx
	.cfi_def_cfa_offset 32
	.cfi_offset %rbx, -32
	.cfi_offset %r14, -24
	.cfi_offset %r15, -16
	movq	%rdx, %r14
	movq	%rsi, %r15
	movq	%rdi, %rbx
	movq	%rsi, %rdi
	callq	strlen@PLT
	movq	%r14, %rdi
	xorl	%esi, %esi
	xorl	%edx, %edx
	movq	%r15, %rcx
	movq	%rax, %r8
	callq	_ZNSt7__cxx1112basic_stringIcSt11char_traitsIcESaIcEE10_M_replaceEmmPKcm@PLT
	leaq	16(%rbx), %rdx
	movq	%rdx, (%rbx)
	movq	(%rax), %rsi
	movq	%rax, %rcx
	addq	$16, %rcx
	cmpq	%rcx, %rsi
	je	.LBB14_1
# %bb.2:                                # %if.else.i
	movq	%rsi, (%rbx)
	movq	(%rcx), %rdx
	movq	%rdx, 16(%rbx)
	jmp	.LBB14_3
.LBB14_1:                               # %if.then.i
	movups	(%rcx), %xmm0
	movups	%xmm0, (%rdx)
.LBB14_3:                               # %_ZNSt7__cxx1112basic_stringIcSt11char_traitsIcESaIcEEC2EOS4_.exit
	movq	8(%rax), %rdx
	movq	%rdx, 8(%rbx)
	movq	%rcx, (%rax)
	movq	$0, 8(%rax)
	movb	$0, 16(%rax)
	movq	%rbx, %rax
	popq	%rbx
	.cfi_def_cfa_offset 24
	popq	%r14
	.cfi_def_cfa_offset 16
	popq	%r15
	.cfi_def_cfa_offset 8
	retq
.Lfunc_end14:
	.size	_ZStplIcSt11char_traitsIcESaIcEENSt7__cxx1112basic_stringIT_T0_T1_EEPKS5_OS8_, .Lfunc_end14-_ZStplIcSt11char_traitsIcESaIcEENSt7__cxx1112basic_stringIT_T0_T1_EEPKS5_OS8_
	.cfi_endproc
                                        # -- End function
	.section	.text._ZNK8pybind116detail25error_fetch_and_normalize22format_value_and_traceB5cxx11Ev,"axG",@progbits,_ZNK8pybind116detail25error_fetch_and_normalize22format_value_and_traceB5cxx11Ev,comdat
	.hidden	_ZNK8pybind116detail25error_fetch_and_normalize22format_value_and_traceB5cxx11Ev # -- Begin function _ZNK8pybind116detail25error_fetch_and_normalize22format_value_and_traceB5cxx11Ev
	.weak	_ZNK8pybind116detail25error_fetch_and_normalize22format_value_and_traceB5cxx11Ev
	.p2align	4, 0x90
	.type	_ZNK8pybind116detail25error_fetch_and_normalize22format_value_and_traceB5cxx11Ev,@function
_ZNK8pybind116detail25error_fetch_and_normalize22format_value_and_traceB5cxx11Ev: # @_ZNK8pybind116detail25error_fetch_and_normalize22format_value_and_traceB5cxx11Ev
.Lfunc_begin8:
	.cfi_startproc
	.cfi_personality 155, DW.ref.__gxx_personality_v0
	.cfi_lsda 27, .Lexception8
# %bb.0:                                # %entry
	pushq	%rbp
	.cfi_def_cfa_offset 16
	pushq	%r15
	.cfi_def_cfa_offset 24
	pushq	%r14
	.cfi_def_cfa_offset 32
	pushq	%r13
	.cfi_def_cfa_offset 40
	pushq	%r12
	.cfi_def_cfa_offset 48
	pushq	%rbx
	.cfi_def_cfa_offset 56
	subq	$216, %rsp
	.cfi_def_cfa_offset 272
	.cfi_offset %rbx, -56
	.cfi_offset %r12, -48
	.cfi_offset %r13, -40
	.cfi_offset %r14, -32
	.cfi_offset %r15, -24
	.cfi_offset %rbp, -16
	movq	%rsi, %r14
	movq	%rdi, %rbx
	leaq	16(%rdi), %rax
	movq	%rax, 40(%rsp)                  # 8-byte Spill
	movq	%rax, (%rdi)
	movq	$0, 8(%rdi)
	movb	$0, 16(%rdi)
	leaq	128(%rsp), %rax
	movq	%rax, 112(%rsp)
	movq	$0, 120(%rsp)
	movb	$0, 128(%rsp)
	movq	8(%rsi), %rdi
	testq	%rdi, %rdi
	movq	%rbx, (%rsp)                    # 8-byte Spill
	je	.LBB15_15
# %bb.1:                                # %if.then
.Ltmp232:
	callq	PyObject_Str@PLT
.Ltmp233:
# %bb.2:                                # %invoke.cont9
	movq	%rax, 144(%rsp)
	testq	%rax, %rax
	je	.LBB15_16
# %bb.3:                                # %if.else
.Ltmp235:
	leaq	.L.str.13(%rip), %rsi
	leaq	.L.str.14(%rip), %rdx
	movq	%rax, %rdi
	callq	PyUnicode_AsEncodedString@PLT
.Ltmp236:
# %bb.4:                                # %invoke.cont27
	movq	%rax, 200(%rsp)
	testq	%rax, %rax
	je	.LBB15_26
# %bb.5:                                # %if.else38
	movq	$0, 192(%rsp)
	movq	$0, 184(%rsp)
.Ltmp238:
	leaq	192(%rsp), %rsi
	leaq	184(%rsp), %rdx
	movq	%rax, %rdi
	callq	PyBytes_AsStringAndSize@PLT
.Ltmp239:
# %bb.6:                                # %invoke.cont42
	cmpl	$-1, %eax
	je	.LBB15_36
# %bb.7:                                # %if.else51
	movq	192(%rsp), %r12
	movq	184(%rsp), %r15
	leaq	64(%rsp), %rbx
	movq	%rbx, 48(%rsp)
	movq	%rbx, %r13
	cmpq	$16, %r15
	jb	.LBB15_12
# %bb.8:                                # %if.then4.i.i.i.i
	testq	%r15, %r15
	js	.LBB15_267
# %bb.9:                                # %if.end11.i.i.i.i.i
	movq	%r15, %rdi
	incq	%rdi
	js	.LBB15_254
# %bb.10:                               # %_ZNSt7__cxx1112basic_stringIcSt11char_traitsIcESaIcEE9_M_createERmm.exit.i.i.i.i
.Ltmp240:
	callq	_Znwm@PLT
.Ltmp241:
# %bb.11:                               # %call5.i.i.i.i.i.i.i4.i.noexc
	movq	%rax, %r13
	movq	%rax, 48(%rsp)
	movq	%r15, 64(%rsp)
.LBB15_12:                              # %if.end6.i.i.i.i
	testq	%r15, %r15
	je	.LBB15_62
# %bb.13:                               # %if.end6.i.i.i.i
	cmpq	$1, %r15
	jne	.LBB15_61
# %bb.14:                               # %if.then.i.i.i.i.i.i
	movzbl	(%r12), %eax
	movb	%al, (%r13)
	jmp	.LBB15_62
.LBB15_15:                              # %if.else65
.Ltmp331:
	leaq	.L.str.15(%rip), %rcx
	movl	$21, %r8d
	movq	%rbx, %rdi
	xorl	%esi, %esi
	xorl	%edx, %edx
	callq	_ZNSt7__cxx1112basic_stringIcSt11char_traitsIcESaIcEE10_M_replaceEmmPKcm@PLT
.Ltmp332:
	jmp	.LBB15_124
.LBB15_16:                              # %if.then13
.Ltmp301:
	leaq	.L.str.21(%rip), %rsi
	leaq	48(%rsp), %rdi
	callq	_ZN8pybind116detail25error_fetch_and_normalizeC2EPKc
.Ltmp302:
# %bb.17:                               # %.noexc
.Ltmp304:
	leaq	48(%rsp), %rdi
	callq	_ZNK8pybind116detail25error_fetch_and_normalize12error_stringB5cxx11Ev
.Ltmp305:
# %bb.18:                               # %invoke.cont.i
	leaq	24(%rsp), %rbp
	movq	%rbp, 8(%rsp)
	movq	(%rax), %r12
	movq	8(%rax), %r15
	movq	%rbp, %r13
	cmpq	$16, %r15
	jb	.LBB15_23
# %bb.19:                               # %if.then4.i.i.i.i415
	testq	%r15, %r15
	js	.LBB15_265
# %bb.20:                               # %if.end11.i.i.i.i.i417
	movq	%r15, %rdi
	incq	%rdi
	js	.LBB15_252
# %bb.21:                               # %_ZNSt7__cxx1112basic_stringIcSt11char_traitsIcESaIcEE9_M_createERmm.exit.i.i.i.i420
.Ltmp306:
	callq	_Znwm@PLT
.Ltmp307:
# %bb.22:                               # %call5.i.i.i.i.i.i.i6.i.noexc
	movq	%rax, %r13
	movq	%rax, 8(%rsp)
	movq	%r15, 24(%rsp)
.LBB15_23:                              # %if.end6.i.i.i.i410
	testq	%r15, %r15
	je	.LBB15_47
# %bb.24:                               # %if.end6.i.i.i.i410
	cmpq	$1, %r15
	jne	.LBB15_46
# %bb.25:                               # %if.then.i.i.i.i.i.i413
	movzbl	(%r12), %eax
	movb	%al, (%r13)
	jmp	.LBB15_47
.LBB15_26:                              # %if.then31
.Ltmp271:
	leaq	.L.str.21(%rip), %rsi
	leaq	48(%rsp), %rdi
	callq	_ZN8pybind116detail25error_fetch_and_normalizeC2EPKc
.Ltmp272:
# %bb.27:                               # %.noexc41
.Ltmp274:
	leaq	48(%rsp), %rdi
	callq	_ZNK8pybind116detail25error_fetch_and_normalize12error_stringB5cxx11Ev
.Ltmp275:
# %bb.28:                               # %invoke.cont.i40
	leaq	24(%rsp), %rbp
	movq	%rbp, 8(%rsp)
	movq	(%rax), %r12
	movq	8(%rax), %r15
	movq	%rbp, %r13
	cmpq	$16, %r15
	jb	.LBB15_33
# %bb.29:                               # %if.then4.i.i.i.i449
	testq	%r15, %r15
	js	.LBB15_269
# %bb.30:                               # %if.end11.i.i.i.i.i451
	movq	%r15, %rdi
	incq	%rdi
	js	.LBB15_256
# %bb.31:                               # %_ZNSt7__cxx1112basic_stringIcSt11char_traitsIcESaIcEE9_M_createERmm.exit.i.i.i.i454
.Ltmp276:
	callq	_Znwm@PLT
.Ltmp277:
# %bb.32:                               # %call5.i.i.i.i.i.i.i6.i.noexc459
	movq	%rax, %r13
	movq	%rax, 8(%rsp)
	movq	%r15, 24(%rsp)
.LBB15_33:                              # %if.end6.i.i.i.i444
	testq	%r15, %r15
	je	.LBB15_71
# %bb.34:                               # %if.end6.i.i.i.i444
	cmpq	$1, %r15
	jne	.LBB15_70
# %bb.35:                               # %if.then.i.i.i.i.i.i447
	movzbl	(%r12), %eax
	movb	%al, (%r13)
	jmp	.LBB15_71
.LBB15_36:                              # %if.then44
.Ltmp247:
	leaq	.L.str.21(%rip), %rsi
	leaq	48(%rsp), %rdi
	callq	_ZN8pybind116detail25error_fetch_and_normalizeC2EPKc
.Ltmp248:
# %bb.37:                               # %.noexc83
.Ltmp250:
	leaq	48(%rsp), %rdi
	callq	_ZNK8pybind116detail25error_fetch_and_normalize12error_stringB5cxx11Ev
.Ltmp251:
# %bb.38:                               # %invoke.cont.i82
	leaq	24(%rsp), %rbp
	movq	%rbp, 8(%rsp)
	movq	(%rax), %r12
	movq	8(%rax), %r15
	movq	%rbp, %r13
	cmpq	$16, %r15
	jb	.LBB15_43
# %bb.39:                               # %if.then4.i.i.i.i485
	testq	%r15, %r15
	js	.LBB15_271
# %bb.40:                               # %if.end11.i.i.i.i.i487
	movq	%r15, %rdi
	incq	%rdi
	js	.LBB15_261
# %bb.41:                               # %_ZNSt7__cxx1112basic_stringIcSt11char_traitsIcESaIcEE9_M_createERmm.exit.i.i.i.i490
.Ltmp252:
	callq	_Znwm@PLT
.Ltmp253:
# %bb.42:                               # %call5.i.i.i.i.i.i.i6.i.noexc495
	movq	%rax, %r13
	movq	%rax, 8(%rsp)
	movq	%r15, 24(%rsp)
.LBB15_43:                              # %if.end6.i.i.i.i480
	testq	%r15, %r15
	je	.LBB15_88
# %bb.44:                               # %if.end6.i.i.i.i480
	cmpq	$1, %r15
	jne	.LBB15_87
# %bb.45:                               # %if.then.i.i.i.i.i.i483
	movzbl	(%r12), %eax
	movb	%al, (%r13)
	jmp	.LBB15_88
.LBB15_46:                              # %if.end.i.i.i.i.i.i.i414
	movq	%r13, %rdi
	movq	%r12, %rsi
	movq	%r15, %rdx
	callq	memcpy@PLT
.LBB15_47:                              # %_ZN8pybind116detail12error_stringB5cxx11Ev.exit
	movq	%r15, 16(%rsp)
	movb	$0, (%r13,%r15)
	movq	72(%rsp), %rdi
	leaq	88(%rsp), %rax
	cmpq	%rax, %rdi
	je	.LBB15_49
# %bb.48:                               # %if.then.i.i.i406
	movq	88(%rsp), %rsi
	incq	%rsi
	callq	_ZdlPvm@PLT
.LBB15_49:                              # %_ZNSt7__cxx1112basic_stringIcSt11char_traitsIcESaIcEED2Ev.exit.i
	leaq	64(%rsp), %rdi
.Ltmp308:
	callq	_ZNKR8pybind116handle7dec_refEv
.Ltmp309:
# %bb.50:                               # %_ZN8pybind116objectD2Ev.exit.i
	leaq	56(%rsp), %rdi
.Ltmp311:
	callq	_ZNKR8pybind116handle7dec_refEv
.Ltmp312:
# %bb.51:                               # %_ZN8pybind116objectD2Ev.exit3.i
.Ltmp314:
	leaq	48(%rsp), %rdi
	callq	_ZNKR8pybind116handle7dec_refEv
.Ltmp315:
# %bb.52:                               # %invoke.cont15
	movq	8(%rsp), %rsi
	cmpq	%rbp, %rsi
	je	.LBB15_56
# %bb.53:                               # %invoke.cont28.i
	movq	112(%rsp), %rax
	leaq	128(%rsp), %rcx
	cmpq	%rcx, %rax
	je	.LBB15_59
# %bb.54:                               # %if.end32.i
	movq	128(%rsp), %rcx
	movq	%rsi, 112(%rsp)
	movups	16(%rsp), %xmm0
	movups	%xmm0, 120(%rsp)
	testq	%rax, %rax
	je	.LBB15_60
# %bb.55:                               # %if.then36.i
	movq	%rax, 8(%rsp)
	movq	%rcx, 24(%rsp)
	jmp	.LBB15_102
.LBB15_56:                              # %if.then15.i
	movq	16(%rsp), %rdx
	testq	%rdx, %rdx
	je	.LBB15_101
# %bb.57:                               # %if.then19.i
	movq	112(%rsp), %rdi
	cmpq	$1, %rdx
	jne	.LBB15_100
# %bb.58:                               # %if.then.i.i
	movzbl	(%rsi), %eax
	movb	%al, (%rdi)
	jmp	.LBB15_101
.LBB15_59:                              # %if.end32.thread.i
	movq	%rsi, 112(%rsp)
	movups	16(%rsp), %xmm0
	movups	%xmm0, 120(%rsp)
.LBB15_60:                              # %if.else37.i
	movq	%rbp, 8(%rsp)
	movq	%rbp, %rax
	jmp	.LBB15_102
.LBB15_61:                              # %if.end.i.i.i.i.i.i.i
	movq	%r13, %rdi
	movq	%r12, %rsi
	movq	%r15, %rdx
	callq	memcpy@PLT
.LBB15_62:                              # %invoke.cont55
	movq	%r15, 56(%rsp)
	movb	$0, (%r13,%r15)
	movq	48(%rsp), %rsi
	cmpq	%rbx, %rsi
	je	.LBB15_66
# %bb.63:                               # %invoke.cont28.i127
	movq	(%rsp), %rdx                    # 8-byte Reload
	movq	(%rdx), %rax
	cmpq	40(%rsp), %rax                  # 8-byte Folded Reload
	je	.LBB15_83
# %bb.64:                               # %if.end32.i129
	movq	16(%rdx), %rcx
	movq	%rsi, (%rdx)
	movups	56(%rsp), %xmm0
	movups	%xmm0, 8(%rdx)
	testq	%rax, %rax
	je	.LBB15_84
# %bb.65:                               # %if.then36.i133
	movq	%rax, 48(%rsp)
	movq	%rcx, 64(%rsp)
	jmp	.LBB15_109
.LBB15_66:                              # %if.then15.i139
	leaq	48(%rsp), %rax
	cmpq	(%rsp), %rax                    # 8-byte Folded Reload
	je	.LBB15_258
# %bb.67:                               # %if.then16.i
	movq	56(%rsp), %rdx
	testq	%rdx, %rdx
	je	.LBB15_108
# %bb.68:                               # %if.then19.i142
	movq	(%rsp), %rax                    # 8-byte Reload
	movq	(%rax), %rdi
	cmpq	$1, %rdx
	jne	.LBB15_107
# %bb.69:                               # %if.then.i.i149
	movzbl	(%rsi), %eax
	movb	%al, (%rdi)
	jmp	.LBB15_108
.LBB15_70:                              # %if.end.i.i.i.i.i.i.i448
	movq	%r13, %rdi
	movq	%r12, %rsi
	movq	%r15, %rdx
	callq	memcpy@PLT
.LBB15_71:                              # %_ZN8pybind116detail12error_stringB5cxx11Ev.exit43
	movq	%r15, 16(%rsp)
	movb	$0, (%r13,%r15)
	movq	72(%rsp), %rdi
	leaq	88(%rsp), %rax
	cmpq	%rax, %rdi
	je	.LBB15_73
# %bb.72:                               # %if.then.i.i.i428
	movq	88(%rsp), %rsi
	incq	%rsi
	callq	_ZdlPvm@PLT
.LBB15_73:                              # %_ZNSt7__cxx1112basic_stringIcSt11char_traitsIcESaIcEED2Ev.exit.i430
	leaq	64(%rsp), %rdi
.Ltmp278:
	callq	_ZNKR8pybind116handle7dec_refEv
.Ltmp279:
# %bb.74:                               # %_ZN8pybind116objectD2Ev.exit.i434
	leaq	56(%rsp), %rdi
.Ltmp281:
	callq	_ZNKR8pybind116handle7dec_refEv
.Ltmp282:
# %bb.75:                               # %_ZN8pybind116objectD2Ev.exit3.i438
.Ltmp284:
	leaq	48(%rsp), %rdi
	callq	_ZNKR8pybind116handle7dec_refEv
.Ltmp285:
# %bb.76:                               # %invoke.cont34
	movq	8(%rsp), %rsi
	cmpq	%rbp, %rsi
	je	.LBB15_80
# %bb.77:                               # %invoke.cont28.i46
	movq	112(%rsp), %rax
	leaq	128(%rsp), %rcx
	cmpq	%rcx, %rax
	je	.LBB15_85
# %bb.78:                               # %if.end32.i48
	movq	128(%rsp), %rcx
	movq	%rsi, 112(%rsp)
	movups	16(%rsp), %xmm0
	movups	%xmm0, 120(%rsp)
	testq	%rax, %rax
	je	.LBB15_86
# %bb.79:                               # %if.then36.i52
	movq	%rax, 8(%rsp)
	movq	%rcx, 24(%rsp)
	jmp	.LBB15_114
.LBB15_80:                              # %if.then15.i58
	movq	16(%rsp), %rdx
	testq	%rdx, %rdx
	je	.LBB15_113
# %bb.81:                               # %if.then19.i61
	movq	112(%rsp), %rdi
	cmpq	$1, %rdx
	jne	.LBB15_112
# %bb.82:                               # %if.then.i.i68
	movzbl	(%rsi), %eax
	movb	%al, (%rdi)
	jmp	.LBB15_113
.LBB15_83:                              # %if.end32.thread.i136
	movq	%rsi, (%rdx)
	movups	56(%rsp), %xmm0
	movups	%xmm0, 8(%rdx)
.LBB15_84:                              # %if.else37.i135
	movq	%rbx, 48(%rsp)
	movq	%rbx, %rax
	jmp	.LBB15_109
.LBB15_85:                              # %if.end32.thread.i55
	movq	%rsi, 112(%rsp)
	movups	16(%rsp), %xmm0
	movups	%xmm0, 120(%rsp)
.LBB15_86:                              # %if.else37.i54
	movq	%rbp, 8(%rsp)
	movq	%rbp, %rax
	jmp	.LBB15_114
.LBB15_87:                              # %if.end.i.i.i.i.i.i.i484
	movq	%r13, %rdi
	movq	%r12, %rsi
	movq	%r15, %rdx
	callq	memcpy@PLT
.LBB15_88:                              # %_ZN8pybind116detail12error_stringB5cxx11Ev.exit85
	movq	%r15, 16(%rsp)
	movb	$0, (%r13,%r15)
	movq	72(%rsp), %rdi
	leaq	88(%rsp), %rax
	cmpq	%rax, %rdi
	je	.LBB15_90
# %bb.89:                               # %if.then.i.i.i464
	movq	88(%rsp), %rsi
	incq	%rsi
	callq	_ZdlPvm@PLT
.LBB15_90:                              # %_ZNSt7__cxx1112basic_stringIcSt11char_traitsIcESaIcEED2Ev.exit.i466
	leaq	64(%rsp), %rdi
.Ltmp254:
	callq	_ZNKR8pybind116handle7dec_refEv
.Ltmp255:
# %bb.91:                               # %_ZN8pybind116objectD2Ev.exit.i470
	leaq	56(%rsp), %rdi
.Ltmp257:
	callq	_ZNKR8pybind116handle7dec_refEv
.Ltmp258:
# %bb.92:                               # %_ZN8pybind116objectD2Ev.exit3.i474
.Ltmp260:
	leaq	48(%rsp), %rdi
	callq	_ZNKR8pybind116handle7dec_refEv
.Ltmp261:
# %bb.93:                               # %invoke.cont47
	movq	8(%rsp), %rsi
	cmpq	%rbp, %rsi
	je	.LBB15_97
# %bb.94:                               # %invoke.cont28.i88
	movq	112(%rsp), %rax
	leaq	128(%rsp), %rcx
	cmpq	%rcx, %rax
	je	.LBB15_105
# %bb.95:                               # %if.end32.i90
	movq	128(%rsp), %rcx
	movq	%rsi, 112(%rsp)
	movups	16(%rsp), %xmm0
	movups	%xmm0, 120(%rsp)
	testq	%rax, %rax
	je	.LBB15_106
# %bb.96:                               # %if.then36.i94
	movq	%rax, 8(%rsp)
	movq	%rcx, 24(%rsp)
	jmp	.LBB15_119
.LBB15_97:                              # %if.then15.i100
	movq	16(%rsp), %rdx
	testq	%rdx, %rdx
	je	.LBB15_118
# %bb.98:                               # %if.then19.i103
	movq	112(%rsp), %rdi
	cmpq	$1, %rdx
	jne	.LBB15_117
# %bb.99:                               # %if.then.i.i110
	movzbl	(%rsi), %eax
	movb	%al, (%rdi)
	jmp	.LBB15_118
.LBB15_100:                             # %if.end.i.i.i
	callq	memcpy@PLT
.LBB15_101:                             # %if.end24.i
	movq	16(%rsp), %rax
	movq	%rax, 120(%rsp)
	movq	112(%rsp), %rcx
	movb	$0, (%rcx,%rax)
	movq	8(%rsp), %rax
.LBB15_102:                             # %_ZNSt7__cxx1112basic_stringIcSt11char_traitsIcESaIcEEaSEOS4_.exit
	movq	$0, 16(%rsp)
	movb	$0, (%rax)
	movq	8(%rsp), %rdi
	cmpq	%rbp, %rdi
	je	.LBB15_104
# %bb.103:                              # %if.then.i.i32
	movq	24(%rsp), %rsi
	incq	%rsi
	callq	_ZdlPvm@PLT
.LBB15_104:                             # %_ZNSt7__cxx1112basic_stringIcSt11char_traitsIcESaIcEED2Ev.exit
	movq	8(%rbx), %rdx
.Ltmp317:
	leaq	.L.str.12(%rip), %rcx
	movl	$46, %r8d
	movq	%rbx, %rdi
	xorl	%esi, %esi
	callq	_ZNSt7__cxx1112basic_stringIcSt11char_traitsIcESaIcEE10_M_replaceEmmPKcm@PLT
.Ltmp318:
	jmp	.LBB15_123
.LBB15_105:                             # %if.end32.thread.i97
	movq	%rsi, 112(%rsp)
	movups	16(%rsp), %xmm0
	movups	%xmm0, 120(%rsp)
.LBB15_106:                             # %if.else37.i96
	movq	%rbp, 8(%rsp)
	movq	%rbp, %rax
	jmp	.LBB15_119
.LBB15_107:                             # %if.end.i.i.i144
	callq	memcpy@PLT
.LBB15_108:                             # %if.end24.i145
	movq	56(%rsp), %rax
	movq	(%rsp), %rcx                    # 8-byte Reload
	movq	%rax, 8(%rcx)
	movq	(%rcx), %rcx
	movb	$0, (%rcx,%rax)
	movq	48(%rsp), %rax
.LBB15_109:                             # %_ZNSt7__cxx1112basic_stringIcSt11char_traitsIcESaIcEEaSEOS4_.exit150
	movq	$0, 56(%rsp)
	movb	$0, (%rax)
	movq	48(%rsp), %rdi
	cmpq	%rbx, %rdi
	je	.LBB15_111
# %bb.110:                              # %if.then.i.i152
	movq	64(%rsp), %rsi
	incq	%rsi
	callq	_ZdlPvm@PLT
.LBB15_111:                             # %_ZNSt7__cxx1112basic_stringIcSt11char_traitsIcESaIcEED2Ev.exit155
	movq	(%rsp), %rbx                    # 8-byte Reload
	jmp	.LBB15_122
.LBB15_112:                             # %if.end.i.i.i63
	callq	memcpy@PLT
.LBB15_113:                             # %if.end24.i64
	movq	16(%rsp), %rax
	movq	%rax, 120(%rsp)
	movq	112(%rsp), %rcx
	movb	$0, (%rcx,%rax)
	movq	8(%rsp), %rax
.LBB15_114:                             # %_ZNSt7__cxx1112basic_stringIcSt11char_traitsIcESaIcEEaSEOS4_.exit69
	movq	$0, 16(%rsp)
	movb	$0, (%rax)
	movq	8(%rsp), %rdi
	cmpq	%rbp, %rdi
	je	.LBB15_116
# %bb.115:                              # %if.then.i.i71
	movq	24(%rsp), %rsi
	incq	%rsi
	callq	_ZdlPvm@PLT
.LBB15_116:                             # %_ZNSt7__cxx1112basic_stringIcSt11char_traitsIcESaIcEED2Ev.exit74
	movq	8(%rbx), %rdx
.Ltmp287:
	leaq	.L.str.12(%rip), %rcx
	movl	$46, %r8d
	movq	%rbx, %rdi
	xorl	%esi, %esi
	callq	_ZNSt7__cxx1112basic_stringIcSt11char_traitsIcESaIcEE10_M_replaceEmmPKcm@PLT
.Ltmp288:
	jmp	.LBB15_122
.LBB15_117:                             # %if.end.i.i.i105
	callq	memcpy@PLT
.LBB15_118:                             # %if.end24.i106
	movq	16(%rsp), %rax
	movq	%rax, 120(%rsp)
	movq	112(%rsp), %rcx
	movb	$0, (%rcx,%rax)
	movq	8(%rsp), %rax
.LBB15_119:                             # %_ZNSt7__cxx1112basic_stringIcSt11char_traitsIcESaIcEEaSEOS4_.exit111
	movq	$0, 16(%rsp)
	movb	$0, (%rax)
	movq	8(%rsp), %rdi
	cmpq	%rbp, %rdi
	je	.LBB15_121
# %bb.120:                              # %if.then.i.i113
	movq	24(%rsp), %rsi
	incq	%rsi
	callq	_ZdlPvm@PLT
.LBB15_121:                             # %_ZNSt7__cxx1112basic_stringIcSt11char_traitsIcESaIcEED2Ev.exit116
	movq	8(%rbx), %rdx
.Ltmp263:
	leaq	.L.str.12(%rip), %rcx
	movl	$46, %r8d
	movq	%rbx, %rdi
	xorl	%esi, %esi
	callq	_ZNSt7__cxx1112basic_stringIcSt11char_traitsIcESaIcEE10_M_replaceEmmPKcm@PLT
.Ltmp264:
.LBB15_122:                             # %if.end58
.Ltmp290:
	leaq	200(%rsp), %rdi
	callq	_ZNKR8pybind116handle7dec_refEv
.Ltmp291:
.LBB15_123:                             # %if.end61
.Ltmp320:
	leaq	144(%rsp), %rdi
	callq	_ZNKR8pybind116handle7dec_refEv
.Ltmp321:
.LBB15_124:                             # %if.end68
	cmpq	$0, 8(%rbx)
	jne	.LBB15_126
# %bb.125:                              # %if.then70
.Ltmp333:
	leaq	.L.str.16(%rip), %rcx
	movl	$15, %r8d
	movq	%rbx, %rdi
	xorl	%esi, %esi
	xorl	%edx, %edx
	callq	_ZNSt7__cxx1112basic_stringIcSt11char_traitsIcESaIcEE10_M_replaceEmmPKcm@PLT
.Ltmp334:
.LBB15_126:                             # %if.end73
	movq	16(%r14), %rax
	testq	%rax, %rax
	je	.LBB15_135
	.p2align	4, 0x90
.LBB15_127:                             # %while.cond
                                        # =>This Inner Loop Header: Depth=1
	movq	%rax, %rcx
	movq	16(%rax), %rax
	testq	%rax, %rax
	jne	.LBB15_127
# %bb.128:                              # %while.end
	movq	24(%rcx), %r13
	testq	%r13, %r13
	je	.LBB15_130
# %bb.129:                              # %if.then.i
	incq	(%r13)
.LBB15_130:                             # %invoke.cont84
	movabsq	$9223372036854775801, %rax      # imm = 0x7FFFFFFFFFFFFFF9
	movq	8(%rbx), %rsi
	cmpq	%rax, %rsi
	movq	%rbx, %r15
	jg	.LBB15_263
# %bb.131:                              # %_ZNKSt7__cxx1112basic_stringIcSt11char_traitsIcESaIcEE15_M_check_lengthEmmPKc.exit.i.i
	leaq	6(%rsi), %rbx
	movq	(%r15), %rax
	movl	$15, %ecx
	cmpq	40(%rsp), %rax                  # 8-byte Folded Reload
	je	.LBB15_133
# %bb.132:                              # %_ZNKSt7__cxx1112basic_stringIcSt11char_traitsIcESaIcEE15_M_check_lengthEmmPKc.exit.i.i
	movq	(%rsp), %rcx                    # 8-byte Reload
	movq	16(%rcx), %rcx
.LBB15_133:                             # %_ZNKSt7__cxx1112basic_stringIcSt11char_traitsIcESaIcEE15_M_check_lengthEmmPKc.exit.i.i
	cmpq	%rcx, %rbx
	jbe	.LBB15_142
# %bb.134:                              # %if.else.i.i.i
.Ltmp336:
	leaq	.L.str.17(%rip), %rcx
	movl	$6, %r8d
	movq	(%rsp), %r15                    # 8-byte Reload
	movq	%r15, %rdi
	xorl	%edx, %edx
	callq	_ZNSt7__cxx1112basic_stringIcSt11char_traitsIcESaIcEE9_M_mutateEmmPKcm@PLT
.Ltmp337:
	jmp	.LBB15_143
.LBB15_135:                             # %if.end145.thread
	cmpq	$0, 120(%rsp)
	je	.LBB15_249
# %bb.136:                              # %if.then148
	movq	(%rbx), %rax
	movq	8(%rbx), %r14
	leaq	1(%r14), %rbx
	movl	$15, %ecx
	cmpq	40(%rsp), %rax                  # 8-byte Folded Reload
	je	.LBB15_138
# %bb.137:                              # %if.then148
	movq	(%rsp), %rcx                    # 8-byte Reload
	movq	16(%rcx), %rcx
.LBB15_138:                             # %if.then148
	cmpq	%rcx, %rbx
	jbe	.LBB15_141
# %bb.139:                              # %if.then.i.i359
.Ltmp383:
	movl	$1, %r8d
	movq	(%rsp), %r15                    # 8-byte Reload
	movq	%r15, %rdi
	movq	%r14, %rsi
	xorl	%edx, %edx
	xorl	%ecx, %ecx
	callq	_ZNSt7__cxx1112basic_stringIcSt11char_traitsIcESaIcEE9_M_mutateEmmPKcm@PLT
.Ltmp384:
# %bb.140:                              # %.noexc361
	movq	(%r15), %rax
.LBB15_141:                             # %_ZNSt7__cxx1112basic_stringIcSt11char_traitsIcESaIcEEpLEc.exit362
	movb	$10, (%rax,%r14)
	movq	(%rsp), %rax                    # 8-byte Reload
	movq	%rbx, 8(%rax)
	movq	%rax, %rbx
	movq	(%rax), %rax
	movb	$0, 1(%rax,%r14)
	jmp	.LBB15_237
.LBB15_142:                             # %if.end.i.i.i.i.i
	movw	$2618, 4(%rax,%rsi)             # imm = 0xA3A
	movl	$1950419466, (%rax,%rsi)        # imm = 0x74410A0A
	movq	(%rsp), %r15                    # 8-byte Reload
.LBB15_143:                             # %_ZNSt7__cxx1112basic_stringIcSt11char_traitsIcESaIcEEpLEPKc.exit
	movq	%rbx, 8(%r15)
	movq	(%r15), %rax
	movb	$0, (%rax,%rbx)
	testq	%r13, %r13
	je	.LBB15_236
# %bb.144:                              # %while.body89.lr.ph
	leaq	64(%rsp), %rcx
	leaq	64(%rsp), %rdx
	movabsq	$9223372036854775801, %rax      # imm = 0x7FFFFFFFFFFFFFF9
	addq	$5, %rax
	movq	%rax, 208(%rsp)                 # 8-byte Spill
	leaq	.L_ZZNSt8__detail18__to_chars_10_implImEEvPcjT_E8__digits.const(%rip), %r14
	movq	%rcx, 160(%rsp)                 # 8-byte Spill
	movq	%rdx, 152(%rsp)                 # 8-byte Spill
	jmp	.LBB15_146
	.p2align	4, 0x90
.LBB15_145:                             # %_ZL10_Py_DECREFP7_object.exit334
                                        #   in Loop: Header=BB15_146 Depth=1
	movq	%r15, %r13
	testq	%r15, %r15
	je	.LBB15_236
.LBB15_146:                             # %while.body89
                                        # =>This Loop Header: Depth=1
                                        #     Child Loop BB15_175 Depth 2
                                        #     Child Loop BB15_191 Depth 2
.Ltmp338:
	movq	%r13, %rdi
	callq	PyFrame_GetCode@PLT
.Ltmp339:
# %bb.147:                              # %invoke.cont91
                                        #   in Loop: Header=BB15_146 Depth=1
.Ltmp341:
	movq	%rax, %r15
	movq	%r13, %rdi
	callq	PyFrame_GetLineNumber@PLT
.Ltmp342:
# %bb.148:                              # %invoke.cont94
                                        #   in Loop: Header=BB15_146 Depth=1
	movl	%eax, %ebp
	movq	(%rsp), %rdx                    # 8-byte Reload
	movq	8(%rdx), %rsi
	movq	%rsi, %rax
	andq	$-2, %rax
	cmpq	208(%rsp), %rax                 # 8-byte Folded Reload
	je	.LBB15_259
# %bb.149:                              # %_ZNKSt7__cxx1112basic_stringIcSt11char_traitsIcESaIcEE15_M_check_lengthEmmPKc.exit.i.i192
                                        #   in Loop: Header=BB15_146 Depth=1
	movq	(%rdx), %rax
	movl	$15, %ecx
	cmpq	40(%rsp), %rax                  # 8-byte Folded Reload
	je	.LBB15_151
# %bb.150:                              # %_ZNKSt7__cxx1112basic_stringIcSt11char_traitsIcESaIcEE15_M_check_lengthEmmPKc.exit.i.i192
                                        #   in Loop: Header=BB15_146 Depth=1
	movq	16(%rdx), %rcx
.LBB15_151:                             # %_ZNKSt7__cxx1112basic_stringIcSt11char_traitsIcESaIcEE15_M_check_lengthEmmPKc.exit.i.i192
                                        #   in Loop: Header=BB15_146 Depth=1
	leaq	2(%rsi), %rbx
	cmpq	%rcx, %rbx
	jbe	.LBB15_153
# %bb.152:                              # %if.else.i.i.i205
                                        #   in Loop: Header=BB15_146 Depth=1
.Ltmp343:
	movl	$2, %r8d
	movq	(%rsp), %rdi                    # 8-byte Reload
	xorl	%edx, %edx
	leaq	.L.str.18(%rip), %rcx
	callq	_ZNSt7__cxx1112basic_stringIcSt11char_traitsIcESaIcEE9_M_mutateEmmPKcm@PLT
.Ltmp344:
	jmp	.LBB15_154
	.p2align	4, 0x90
.LBB15_153:                             # %if.end.i.i.i.i.i202
                                        #   in Loop: Header=BB15_146 Depth=1
	movw	$8224, (%rax,%rsi)              # imm = 0x2020
.LBB15_154:                             # %invoke.cont96
                                        #   in Loop: Header=BB15_146 Depth=1
	movq	(%rsp), %rax                    # 8-byte Reload
	movq	%rbx, 8(%rax)
	movq	(%rax), %rax
	movb	$0, (%rax,%rbx)
	movq	104(%r15), %rax
	movq	%rax, 144(%rsp)
	leaq	64(%rsp), %rbx
	movq	%rbx, 48(%rsp)
	movq	$0, 56(%rsp)
	movb	$0, 64(%rsp)
.Ltmp345:
	leaq	48(%rsp), %rdi
	leaq	144(%rsp), %rsi
	callq	_ZN8pybind116detail9load_typeINSt7__cxx1112basic_stringIcSt11char_traitsIcESaIcEEEvEERNS0_11type_casterIT_T0_EESC_RKNS_6handleE
.Ltmp346:
# %bb.155:                              # %_ZN8pybind116detail9load_typeINSt7__cxx1112basic_stringIcSt11char_traitsIcESaIcEEEEENS0_11type_casterINS0_14intrinsic_typeIT_E4typeEvEERKNS_6handleE.exit.i
                                        #   in Loop: Header=BB15_146 Depth=1
	leaq	24(%rsp), %rax
	movq	%rax, 8(%rsp)
	movq	48(%rsp), %rcx
	cmpq	%rbx, %rcx
	je	.LBB15_157
# %bb.156:                              # %if.else.i.i502
                                        #   in Loop: Header=BB15_146 Depth=1
	movq	%rcx, 8(%rsp)
	movq	64(%rsp), %rax
	movq	%rax, 24(%rsp)
	jmp	.LBB15_158
	.p2align	4, 0x90
.LBB15_157:                             # %if.then.i.i507
                                        #   in Loop: Header=BB15_146 Depth=1
	movups	(%rbx), %xmm0
	movups	%xmm0, (%rax)
	movq	%rax, %rcx
.LBB15_158:                             # %invoke.cont102
                                        #   in Loop: Header=BB15_146 Depth=1
	movq	(%rsp), %rdx                    # 8-byte Reload
	movq	56(%rsp), %r8
	movq	%r8, 16(%rsp)
	movq	(%rdx), %rdi
	movl	$15, %eax
	cmpq	40(%rsp), %rdi                  # 8-byte Folded Reload
	je	.LBB15_160
# %bb.159:                              # %invoke.cont102
                                        #   in Loop: Header=BB15_146 Depth=1
	movq	16(%rdx), %rax
.LBB15_160:                             # %invoke.cont102
                                        #   in Loop: Header=BB15_146 Depth=1
	movq	8(%rdx), %rsi
	leaq	(%rsi,%r8), %rbx
	cmpq	%rax, %rbx
	jbe	.LBB15_162
# %bb.161:                              # %if.else.i.i.i225
                                        #   in Loop: Header=BB15_146 Depth=1
.Ltmp348:
	movq	%rdx, %rdi
	xorl	%edx, %edx
	callq	_ZNSt7__cxx1112basic_stringIcSt11char_traitsIcESaIcEE9_M_mutateEmmPKcm@PLT
.Ltmp349:
	jmp	.LBB15_166
	.p2align	4, 0x90
.LBB15_162:                             # %if.then.i.i.i217
                                        #   in Loop: Header=BB15_146 Depth=1
	testq	%r8, %r8
	je	.LBB15_166
# %bb.163:                              # %if.then3.i.i.i219
                                        #   in Loop: Header=BB15_146 Depth=1
	addq	%rsi, %rdi
	cmpq	$1, %r8
	jne	.LBB15_165
# %bb.164:                              # %if.then.i.i.i.i224
                                        #   in Loop: Header=BB15_146 Depth=1
	movzbl	(%rcx), %eax
	movb	%al, (%rdi)
	jmp	.LBB15_166
.LBB15_165:                             # %if.end.i.i.i.i.i222
                                        #   in Loop: Header=BB15_146 Depth=1
	movq	%rcx, %rsi
	movq	%r8, %rdx
	callq	memcpy@PLT
	.p2align	4, 0x90
.LBB15_166:                             # %invoke.cont104
                                        #   in Loop: Header=BB15_146 Depth=1
	movq	(%rsp), %rax                    # 8-byte Reload
	movq	%rbx, 8(%rax)
	movq	(%rax), %rax
	movb	$0, (%rax,%rbx)
	movq	8(%rsp), %rdi
	leaq	24(%rsp), %rax
	cmpq	%rax, %rdi
	je	.LBB15_168
# %bb.167:                              # %if.then.i.i228
                                        #   in Loop: Header=BB15_146 Depth=1
	movq	24(%rsp), %rsi
	incq	%rsi
	callq	_ZdlPvm@PLT
.LBB15_168:                             # %_ZNSt7__cxx1112basic_stringIcSt11char_traitsIcESaIcEED2Ev.exit231
                                        #   in Loop: Header=BB15_146 Depth=1
	movq	(%rsp), %rdx                    # 8-byte Reload
	movq	(%rdx), %rax
	movq	8(%rdx), %r12
	movl	$15, %ecx
	cmpq	40(%rsp), %rax                  # 8-byte Folded Reload
	je	.LBB15_170
# %bb.169:                              # %_ZNSt7__cxx1112basic_stringIcSt11char_traitsIcESaIcEED2Ev.exit231
                                        #   in Loop: Header=BB15_146 Depth=1
	movq	16(%rdx), %rcx
.LBB15_170:                             # %_ZNSt7__cxx1112basic_stringIcSt11char_traitsIcESaIcEED2Ev.exit231
                                        #   in Loop: Header=BB15_146 Depth=1
	leaq	1(%r12), %rbx
	cmpq	%rcx, %rbx
	jbe	.LBB15_173
# %bb.171:                              # %if.then.i.i235
                                        #   in Loop: Header=BB15_146 Depth=1
.Ltmp351:
	movl	$1, %r8d
	movq	(%rsp), %rdi                    # 8-byte Reload
	movq	%r12, %rsi
	xorl	%edx, %edx
	xorl	%ecx, %ecx
	callq	_ZNSt7__cxx1112basic_stringIcSt11char_traitsIcESaIcEE9_M_mutateEmmPKcm@PLT
.Ltmp352:
# %bb.172:                              # %.noexc236
                                        #   in Loop: Header=BB15_146 Depth=1
	movq	(%rsp), %rax                    # 8-byte Reload
	movq	(%rax), %rax
.LBB15_173:                             # %invoke.cont109
                                        #   in Loop: Header=BB15_146 Depth=1
	movq	%r15, 168(%rsp)                 # 8-byte Spill
	movb	$40, (%rax,%r12)
	movq	(%rsp), %rax                    # 8-byte Reload
	movq	%rbx, 8(%rax)
	movq	(%rax), %rax
	movb	$0, 1(%rax,%r12)
	movl	%ebp, %r15d
	negl	%r15d
	cmovsl	%ebp, %r15d
	movl	$1, %ebx
	cmpl	$10, %r15d
	jb	.LBB15_182
# %bb.174:                              # %if.end.i.i.preheader
                                        #   in Loop: Header=BB15_146 Depth=1
	movl	$4, %ebx
	movl	%r15d, %eax
	.p2align	4, 0x90
.LBB15_175:                             # %if.end.i.i
                                        #   Parent Loop BB15_146 Depth=1
                                        # =>  This Inner Loop Header: Depth=2
	cmpl	$99, %eax
	jbe	.LBB15_180
# %bb.176:                              # %if.end5.i.i
                                        #   in Loop: Header=BB15_175 Depth=2
	cmpl	$999, %eax                      # imm = 0x3E7
	jbe	.LBB15_181
# %bb.177:                              # %if.end9.i.i
                                        #   in Loop: Header=BB15_175 Depth=2
	cmpl	$10000, %eax                    # imm = 0x2710
	jb	.LBB15_182
# %bb.178:                              # %if.end14.i.i
                                        #   in Loop: Header=BB15_175 Depth=2
	movl	%eax, %ecx
	movl	$3518437209, %edx               # imm = 0xD1B71759
	imulq	%rdx, %rcx
	shrq	$45, %rcx
	addl	$4, %ebx
	cmpl	$99999, %eax                    # imm = 0x1869F
	movl	%ecx, %eax
	ja	.LBB15_175
# %bb.179:                              # %_ZNSt8__detail14__to_chars_lenIjEEjT_i.exit.i.loopexit
                                        #   in Loop: Header=BB15_146 Depth=1
	addl	$-3, %ebx
	jmp	.LBB15_182
.LBB15_180:                             # %if.then4.i.i
                                        #   in Loop: Header=BB15_146 Depth=1
	addl	$-2, %ebx
	jmp	.LBB15_182
.LBB15_181:                             # %if.then7.i.i
                                        #   in Loop: Header=BB15_146 Depth=1
	decl	%ebx
	.p2align	4, 0x90
.LBB15_182:                             # %_ZNSt8__detail14__to_chars_lenIjEEjT_i.exit.i
                                        #   in Loop: Header=BB15_146 Depth=1
	movq	%r13, 176(%rsp)                 # 8-byte Spill
	shrl	$31, %ebp
	leal	(%rbx,%rbp), %r12d
	leaq	64(%rsp), %r13
	movq	%r13, 48(%rsp)
	cmpl	$16, %r12d
	jb	.LBB15_186
# %bb.183:                              # %if.then.i.i.i246
                                        #   in Loop: Header=BB15_146 Depth=1
	leaq	1(%r12), %rdi
.Ltmp353:
	callq	_Znwm@PLT
.Ltmp354:
# %bb.184:                              # %call5.i.i.i.i.i2.i8.i.noexc
                                        #   in Loop: Header=BB15_146 Depth=1
	movq	%rax, %r13
	movq	%rax, 48(%rsp)
	movq	%r12, 64(%rsp)
	jmp	.LBB15_185
	.p2align	4, 0x90
.LBB15_186:                             # %if.end.i.i.i240
                                        #   in Loop: Header=BB15_146 Depth=1
	testq	%r12, %r12
	je	.LBB15_189
# %bb.187:                              # %if.end.i.i.i240
                                        #   in Loop: Header=BB15_146 Depth=1
	cmpl	$1, %r12d
	jne	.LBB15_185
# %bb.188:                              # %if.then.i2.i.i.i
                                        #   in Loop: Header=BB15_146 Depth=1
	movb	$45, 64(%rsp)
	jmp	.LBB15_189
	.p2align	4, 0x90
.LBB15_185:                             # %if.end.i.i.i.i.i245
                                        #   in Loop: Header=BB15_146 Depth=1
	movq	%r13, %rdi
	movl	$45, %esi
	movq	%r12, %rdx
	callq	memset@PLT
.LBB15_189:                             # %invoke.cont.i241
                                        #   in Loop: Header=BB15_146 Depth=1
	movq	%r12, 56(%rsp)
	movb	$0, (%r13,%r12)
	movl	%ebp, %eax
	addq	48(%rsp), %rax
	cmpl	$100, %r15d
	jb	.LBB15_194
# %bb.190:                              # %while.body.preheader.i.i
                                        #   in Loop: Header=BB15_146 Depth=1
	addl	$-2, %ebx
	movq	176(%rsp), %r13                 # 8-byte Reload
	.p2align	4, 0x90
.LBB15_191:                             # %while.body.i.i
                                        #   Parent Loop BB15_146 Depth=1
                                        # =>  This Inner Loop Header: Depth=2
	leal	1(%rbx), %edx
	movl	%r15d, %ecx
	imulq	$1374389535, %rcx, %rcx         # imm = 0x51EB851F
	shrq	$37, %rcx
	imull	$100, %ecx, %esi
	movl	%r15d, %edi
	subl	%esi, %edi
	movzbl	(%r14,%rdi,2), %esi
	movzbl	1(%r14,%rdi,2), %edi
	movb	%dil, (%rax,%rdx)
	movl	%ebx, %edx
	movb	%sil, (%rax,%rdx)
	addl	$-2, %ebx
	cmpl	$9999, %r15d                    # imm = 0x270F
	movl	%ecx, %r15d
	ja	.LBB15_191
# %bb.192:                              # %while.end.i.i
                                        #   in Loop: Header=BB15_146 Depth=1
	cmpl	$10, %ecx
	jb	.LBB15_195
.LBB15_193:                             # %if.then.i.i244
                                        #   in Loop: Header=BB15_146 Depth=1
	movl	%ecx, %ecx
	leaq	(%rcx,%rcx), %rdx
	movl	%edx, %edx
	movzbl	1(%rdx,%r14), %edx
	movb	%dl, 1(%rax)
	movzbl	(%r14,%rcx,2), %ecx
	jmp	.LBB15_196
	.p2align	4, 0x90
.LBB15_194:                             #   in Loop: Header=BB15_146 Depth=1
	movl	%r15d, %ecx
	movq	176(%rsp), %r13                 # 8-byte Reload
	cmpl	$10, %ecx
	jae	.LBB15_193
.LBB15_195:                             # %if.else.i.i
                                        #   in Loop: Header=BB15_146 Depth=1
	orb	$48, %cl
.LBB15_196:                             # %invoke.cont113
                                        #   in Loop: Header=BB15_146 Depth=1
	movq	(%rsp), %rdx                    # 8-byte Reload
	movq	168(%rsp), %r15                 # 8-byte Reload
	movb	%cl, (%rax)
	movq	48(%rsp), %rcx
	movq	56(%rsp), %r8
	movq	(%rdx), %rdi
	movq	8(%rdx), %rsi
	movl	$15, %eax
	cmpq	40(%rsp), %rdi                  # 8-byte Folded Reload
	je	.LBB15_198
# %bb.197:                              # %invoke.cont113
                                        #   in Loop: Header=BB15_146 Depth=1
	movq	16(%rdx), %rax
.LBB15_198:                             # %invoke.cont113
                                        #   in Loop: Header=BB15_146 Depth=1
	leaq	(%rsi,%r8), %rbx
	cmpq	%rax, %rbx
	jbe	.LBB15_200
# %bb.199:                              # %if.else.i.i.i263
                                        #   in Loop: Header=BB15_146 Depth=1
.Ltmp356:
	movq	(%rsp), %rdi                    # 8-byte Reload
	xorl	%edx, %edx
	callq	_ZNSt7__cxx1112basic_stringIcSt11char_traitsIcESaIcEE9_M_mutateEmmPKcm@PLT
.Ltmp357:
	jmp	.LBB15_204
	.p2align	4, 0x90
.LBB15_200:                             # %if.then.i.i.i255
                                        #   in Loop: Header=BB15_146 Depth=1
	testq	%r8, %r8
	je	.LBB15_204
# %bb.201:                              # %if.then3.i.i.i257
                                        #   in Loop: Header=BB15_146 Depth=1
	addq	%rsi, %rdi
	cmpq	$1, %r8
	jne	.LBB15_203
# %bb.202:                              # %if.then.i.i.i.i262
                                        #   in Loop: Header=BB15_146 Depth=1
	movzbl	(%rcx), %eax
	movb	%al, (%rdi)
	jmp	.LBB15_204
.LBB15_203:                             # %if.end.i.i.i.i.i260
                                        #   in Loop: Header=BB15_146 Depth=1
	movq	%rcx, %rsi
	movq	%r8, %rdx
	callq	memcpy@PLT
	.p2align	4, 0x90
.LBB15_204:                             # %invoke.cont115
                                        #   in Loop: Header=BB15_146 Depth=1
	movq	(%rsp), %rax                    # 8-byte Reload
	movq	%rbx, 8(%rax)
	movq	(%rax), %rax
	movb	$0, (%rax,%rbx)
	movq	48(%rsp), %rdi
	leaq	64(%rsp), %rax
	cmpq	%rax, %rdi
	je	.LBB15_206
# %bb.205:                              # %if.then.i.i267
                                        #   in Loop: Header=BB15_146 Depth=1
	movq	64(%rsp), %rsi
	incq	%rsi
	callq	_ZdlPvm@PLT
.LBB15_206:                             # %_ZNSt7__cxx1112basic_stringIcSt11char_traitsIcESaIcEED2Ev.exit270
                                        #   in Loop: Header=BB15_146 Depth=1
	movq	(%rsp), %rdx                    # 8-byte Reload
	movq	8(%rdx), %rsi
	movabsq	$9223372036854775801, %rax      # imm = 0x7FFFFFFFFFFFFFF9
	addq	$3, %rax
	cmpq	%rax, %rsi
	jg	.LBB15_259
# %bb.207:                              # %_ZNKSt7__cxx1112basic_stringIcSt11char_traitsIcESaIcEE15_M_check_lengthEmmPKc.exit.i.i275
                                        #   in Loop: Header=BB15_146 Depth=1
	movq	(%rdx), %rax
	movl	$15, %ecx
	cmpq	40(%rsp), %rax                  # 8-byte Folded Reload
	je	.LBB15_209
# %bb.208:                              # %_ZNKSt7__cxx1112basic_stringIcSt11char_traitsIcESaIcEE15_M_check_lengthEmmPKc.exit.i.i275
                                        #   in Loop: Header=BB15_146 Depth=1
	movq	16(%rdx), %rcx
.LBB15_209:                             # %_ZNKSt7__cxx1112basic_stringIcSt11char_traitsIcESaIcEE15_M_check_lengthEmmPKc.exit.i.i275
                                        #   in Loop: Header=BB15_146 Depth=1
	leaq	3(%rsi), %rbx
	cmpq	%rcx, %rbx
	jbe	.LBB15_211
# %bb.210:                              # %if.else.i.i.i288
                                        #   in Loop: Header=BB15_146 Depth=1
.Ltmp359:
	movl	$3, %r8d
	movq	(%rsp), %rdi                    # 8-byte Reload
	xorl	%edx, %edx
	leaq	.L.str.19(%rip), %rcx
	callq	_ZNSt7__cxx1112basic_stringIcSt11char_traitsIcESaIcEE9_M_mutateEmmPKcm@PLT
.Ltmp360:
	jmp	.LBB15_212
	.p2align	4, 0x90
.LBB15_211:                             # %if.end.i.i.i.i.i285
                                        #   in Loop: Header=BB15_146 Depth=1
	movb	$32, 2(%rax,%rsi)
	movw	$14889, (%rax,%rsi)             # imm = 0x3A29
.LBB15_212:                             # %invoke.cont119
                                        #   in Loop: Header=BB15_146 Depth=1
	movq	(%rsp), %rax                    # 8-byte Reload
	movq	%rbx, 8(%rax)
	movq	(%rax), %rax
	movb	$0, (%rax,%rbx)
	movq	112(%r15), %rax
	movq	%rax, 144(%rsp)
	leaq	64(%rsp), %rbx
	movq	%rbx, 48(%rsp)
	movq	$0, 56(%rsp)
	movb	$0, 64(%rsp)
.Ltmp361:
	leaq	48(%rsp), %rdi
	leaq	144(%rsp), %rsi
	callq	_ZN8pybind116detail9load_typeINSt7__cxx1112basic_stringIcSt11char_traitsIcESaIcEEEvEERNS0_11type_casterIT_T0_EESC_RKNS_6handleE
.Ltmp362:
# %bb.213:                              # %_ZN8pybind116detail9load_typeINSt7__cxx1112basic_stringIcSt11char_traitsIcESaIcEEEEENS0_11type_casterINS0_14intrinsic_typeIT_E4typeEvEERKNS_6handleE.exit.i512
                                        #   in Loop: Header=BB15_146 Depth=1
	leaq	24(%rsp), %rax
	movq	%rax, 8(%rsp)
	movq	48(%rsp), %rcx
	cmpq	%rbx, %rcx
	je	.LBB15_215
# %bb.214:                              # %if.else.i.i515
                                        #   in Loop: Header=BB15_146 Depth=1
	movq	%rcx, 8(%rsp)
	movq	64(%rsp), %rax
	movq	%rax, 24(%rsp)
	jmp	.LBB15_216
	.p2align	4, 0x90
.LBB15_215:                             # %if.then.i.i522
                                        #   in Loop: Header=BB15_146 Depth=1
	movups	(%rbx), %xmm0
	movups	%xmm0, (%rax)
	movq	%rax, %rcx
.LBB15_216:                             # %invoke.cont125
                                        #   in Loop: Header=BB15_146 Depth=1
	movq	(%rsp), %rdx                    # 8-byte Reload
	movq	56(%rsp), %r8
	movq	%r8, 16(%rsp)
	movq	(%rdx), %rdi
	movl	$15, %eax
	cmpq	40(%rsp), %rdi                  # 8-byte Folded Reload
	je	.LBB15_218
# %bb.217:                              # %invoke.cont125
                                        #   in Loop: Header=BB15_146 Depth=1
	movq	16(%rdx), %rax
.LBB15_218:                             # %invoke.cont125
                                        #   in Loop: Header=BB15_146 Depth=1
	movq	8(%rdx), %rsi
	leaq	(%rsi,%r8), %rbx
	cmpq	%rax, %rbx
	jbe	.LBB15_220
# %bb.219:                              # %if.else.i.i.i309
                                        #   in Loop: Header=BB15_146 Depth=1
.Ltmp364:
	movq	%rdx, %rdi
	xorl	%edx, %edx
	callq	_ZNSt7__cxx1112basic_stringIcSt11char_traitsIcESaIcEE9_M_mutateEmmPKcm@PLT
.Ltmp365:
	jmp	.LBB15_224
	.p2align	4, 0x90
.LBB15_220:                             # %if.then.i.i.i301
                                        #   in Loop: Header=BB15_146 Depth=1
	testq	%r8, %r8
	je	.LBB15_224
# %bb.221:                              # %if.then3.i.i.i303
                                        #   in Loop: Header=BB15_146 Depth=1
	addq	%rsi, %rdi
	cmpq	$1, %r8
	jne	.LBB15_223
# %bb.222:                              # %if.then.i.i.i.i308
                                        #   in Loop: Header=BB15_146 Depth=1
	movzbl	(%rcx), %eax
	movb	%al, (%rdi)
	jmp	.LBB15_224
.LBB15_223:                             # %if.end.i.i.i.i.i306
                                        #   in Loop: Header=BB15_146 Depth=1
	movq	%rcx, %rsi
	movq	%r8, %rdx
	callq	memcpy@PLT
	.p2align	4, 0x90
.LBB15_224:                             # %invoke.cont127
                                        #   in Loop: Header=BB15_146 Depth=1
	movq	(%rsp), %rax                    # 8-byte Reload
	movq	%rbx, 8(%rax)
	movq	(%rax), %rax
	movb	$0, (%rax,%rbx)
	movq	8(%rsp), %rdi
	leaq	24(%rsp), %rax
	cmpq	%rax, %rdi
	je	.LBB15_226
# %bb.225:                              # %if.then.i.i313
                                        #   in Loop: Header=BB15_146 Depth=1
	movq	24(%rsp), %rsi
	incq	%rsi
	callq	_ZdlPvm@PLT
.LBB15_226:                             # %_ZNSt7__cxx1112basic_stringIcSt11char_traitsIcESaIcEED2Ev.exit316
                                        #   in Loop: Header=BB15_146 Depth=1
	movq	(%rsp), %rdx                    # 8-byte Reload
	movq	(%rdx), %rax
	movq	8(%rdx), %r12
	movl	$15, %ecx
	cmpq	40(%rsp), %rax                  # 8-byte Folded Reload
	je	.LBB15_228
# %bb.227:                              # %_ZNSt7__cxx1112basic_stringIcSt11char_traitsIcESaIcEED2Ev.exit316
                                        #   in Loop: Header=BB15_146 Depth=1
	movq	16(%rdx), %rcx
.LBB15_228:                             # %_ZNSt7__cxx1112basic_stringIcSt11char_traitsIcESaIcEED2Ev.exit316
                                        #   in Loop: Header=BB15_146 Depth=1
	leaq	1(%r12), %rbx
	cmpq	%rcx, %rbx
	jbe	.LBB15_231
# %bb.229:                              # %if.then.i.i324
                                        #   in Loop: Header=BB15_146 Depth=1
.Ltmp367:
	movl	$1, %r8d
	movq	(%rsp), %rdi                    # 8-byte Reload
	movq	%r12, %rsi
	xorl	%edx, %edx
	xorl	%ecx, %ecx
	callq	_ZNSt7__cxx1112basic_stringIcSt11char_traitsIcESaIcEE9_M_mutateEmmPKcm@PLT
.Ltmp368:
# %bb.230:                              # %.noexc326
                                        #   in Loop: Header=BB15_146 Depth=1
	movq	(%rsp), %rax                    # 8-byte Reload
	movq	(%rax), %rax
.LBB15_231:                             # %invoke.cont132
                                        #   in Loop: Header=BB15_146 Depth=1
	movb	$10, (%rax,%r12)
	movq	(%rsp), %rax                    # 8-byte Reload
	movq	%rbx, 8(%rax)
	movq	(%rax), %rax
	movb	$0, 1(%rax,%r12)
	decq	(%r15)
	jne	.LBB15_233
# %bb.232:                              # %if.else.i
                                        #   in Loop: Header=BB15_146 Depth=1
.Ltmp369:
	movq	%r15, %rdi
	callq	_Py_Dealloc@PLT
.Ltmp370:
.LBB15_233:                             # %invoke.cont134
                                        #   in Loop: Header=BB15_146 Depth=1
.Ltmp372:
	movq	%r13, %rdi
	callq	PyFrame_GetBack@PLT
.Ltmp373:
# %bb.234:                              # %invoke.cont136
                                        #   in Loop: Header=BB15_146 Depth=1
	movq	%rax, %r15
	decq	(%r13)
	jne	.LBB15_145
# %bb.235:                              # %if.else.i332
                                        #   in Loop: Header=BB15_146 Depth=1
.Ltmp374:
	movq	%r13, %rdi
	callq	_Py_Dealloc@PLT
.Ltmp375:
	jmp	.LBB15_145
.LBB15_236:                             # %if.end145
	cmpq	$0, 120(%rsp)
	movq	(%rsp), %rbx                    # 8-byte Reload
	je	.LBB15_249
.LBB15_237:                             # %if.end151
.Ltmp386:
	leaq	.L.str.20(%rip), %rsi
	leaq	48(%rsp), %rdi
	leaq	112(%rsp), %rdx
	callq	_ZStplIcSt11char_traitsIcESaIcEENSt7__cxx1112basic_stringIT_T0_T1_EEPKS5_RKS8_@PLT
.Ltmp387:
# %bb.238:                              # %invoke.cont154
	movq	56(%rsp), %r8
	movq	(%rbx), %rdi
	movq	8(%rbx), %rsi
	leaq	(%rsi,%r8), %rbx
	movl	$15, %eax
	cmpq	40(%rsp), %rdi                  # 8-byte Folded Reload
	je	.LBB15_240
# %bb.239:                              # %invoke.cont154
	movq	(%rsp), %rax                    # 8-byte Reload
	movq	16(%rax), %rax
.LBB15_240:                             # %invoke.cont154
	movq	48(%rsp), %rcx
	cmpq	%rax, %rbx
	jbe	.LBB15_242
# %bb.241:                              # %if.else.i.i.i377
.Ltmp389:
	movq	(%rsp), %rdi                    # 8-byte Reload
	xorl	%edx, %edx
	callq	_ZNSt7__cxx1112basic_stringIcSt11char_traitsIcESaIcEE9_M_mutateEmmPKcm@PLT
.Ltmp390:
	jmp	.LBB15_246
.LBB15_242:                             # %if.then.i.i.i369
	testq	%r8, %r8
	je	.LBB15_246
# %bb.243:                              # %if.then3.i.i.i371
	addq	%rsi, %rdi
	cmpq	$1, %r8
	jne	.LBB15_245
# %bb.244:                              # %if.then.i.i.i.i376
	movzbl	(%rcx), %eax
	movb	%al, (%rdi)
	jmp	.LBB15_246
.LBB15_245:                             # %if.end.i.i.i.i.i374
	movq	%rcx, %rsi
	movq	%r8, %rdx
	callq	memcpy@PLT
.LBB15_246:                             # %invoke.cont156
	movq	(%rsp), %rax                    # 8-byte Reload
	movq	%rbx, 8(%rax)
	movq	(%rax), %rax
	movb	$0, (%rax,%rbx)
	movq	48(%rsp), %rdi
	leaq	64(%rsp), %rax
	cmpq	%rax, %rdi
	je	.LBB15_248
# %bb.247:                              # %if.then.i.i381
	movq	64(%rsp), %rsi
	incq	%rsi
	callq	_ZdlPvm@PLT
.LBB15_248:                             # %_ZNSt7__cxx1112basic_stringIcSt11char_traitsIcESaIcEED2Ev.exit384
	movq	(%rsp), %rbx                    # 8-byte Reload
.LBB15_249:                             # %if.end160
	movq	112(%rsp), %rdi
	leaq	128(%rsp), %rax
	cmpq	%rax, %rdi
	je	.LBB15_251
# %bb.250:                              # %if.then.i.i391
	movq	128(%rsp), %rsi
	incq	%rsi
	callq	_ZdlPvm@PLT
.LBB15_251:                             # %_ZNSt7__cxx1112basic_stringIcSt11char_traitsIcESaIcEED2Ev.exit394
	movq	%rbx, %rax
	addq	$216, %rsp
	.cfi_def_cfa_offset 56
	popq	%rbx
	.cfi_def_cfa_offset 48
	popq	%r12
	.cfi_def_cfa_offset 40
	popq	%r13
	.cfi_def_cfa_offset 32
	popq	%r14
	.cfi_def_cfa_offset 24
	popq	%r15
	.cfi_def_cfa_offset 16
	popq	%rbp
	.cfi_def_cfa_offset 8
	retq
.LBB15_252:                             # %if.end.i.i.i.i.i.i.i.i421
	.cfi_def_cfa_offset 272
.Ltmp323:
	callq	_ZSt17__throw_bad_allocv@PLT
.Ltmp324:
# %bb.253:                              # %.noexc424
.LBB15_254:                             # %if.end.i.i.i.i.i.i.i.i
.Ltmp242:
	callq	_ZSt17__throw_bad_allocv@PLT
.Ltmp243:
# %bb.255:                              # %.noexc123
.LBB15_256:                             # %if.end.i.i.i.i.i.i.i.i455
.Ltmp293:
	callq	_ZSt17__throw_bad_allocv@PLT
.Ltmp294:
# %bb.257:                              # %.noexc458
.LBB15_258:
	movq	%rsi, %rax
	jmp	.LBB15_109
.LBB15_259:                             # %if.then.i.i.i206.invoke
.Ltmp377:
	leaq	.L.str.30(%rip), %rdi
	callq	_ZSt20__throw_length_errorPKc@PLT
.Ltmp378:
# %bb.260:                              # %if.then.i.i.i206.cont
.LBB15_261:                             # %if.end.i.i.i.i.i.i.i.i491
.Ltmp266:
	callq	_ZSt17__throw_bad_allocv@PLT
.Ltmp267:
# %bb.262:                              # %.noexc494
.LBB15_263:                             # %if.then.i.i.i
.Ltmp380:
	leaq	.L.str.30(%rip), %rdi
	callq	_ZSt20__throw_length_errorPKc@PLT
.Ltmp381:
# %bb.264:                              # %.noexc186
.LBB15_265:                             # %if.then.i.i.i.i.i422
.Ltmp325:
	leaq	.L.str.10(%rip), %rdi
	callq	_ZSt20__throw_length_errorPKc@PLT
.Ltmp326:
# %bb.266:                              # %.noexc423
.LBB15_267:                             # %if.then.i.i.i.i.i
.Ltmp244:
	leaq	.L.str.10(%rip), %rdi
	callq	_ZSt20__throw_length_errorPKc@PLT
.Ltmp245:
# %bb.268:                              # %.noexc122
.LBB15_269:                             # %if.then.i.i.i.i.i456
.Ltmp295:
	leaq	.L.str.10(%rip), %rdi
	callq	_ZSt20__throw_length_errorPKc@PLT
.Ltmp296:
# %bb.270:                              # %.noexc457
.LBB15_271:                             # %if.then.i.i.i.i.i492
.Ltmp268:
	leaq	.L.str.10(%rip), %rdi
	callq	_ZSt20__throw_length_errorPKc@PLT
.Ltmp269:
# %bb.272:                              # %.noexc493
.LBB15_273:                             # %terminate.lpad.i5.i476
.Ltmp262:
	movq	%rax, %rdi
	callq	__clang_call_terminate
.LBB15_274:                             # %terminate.lpad.i2.i473
.Ltmp259:
	movq	%rax, %rdi
	callq	__clang_call_terminate
.LBB15_275:                             # %terminate.lpad.i.i469
.Ltmp256:
	movq	%rax, %rdi
	callq	__clang_call_terminate
.LBB15_276:                             # %lpad46
.Ltmp249:
	jmp	.LBB15_315
.LBB15_277:                             # %lpad74
.Ltmp385:
	jmp	.LBB15_299
.LBB15_278:                             # %lpad28
.Ltmp289:
	jmp	.LBB15_315
.LBB15_279:                             # %terminate.lpad.i5.i440
.Ltmp286:
	movq	%rax, %rdi
	callq	__clang_call_terminate
.LBB15_280:                             # %terminate.lpad.i2.i437
.Ltmp283:
	movq	%rax, %rdi
	callq	__clang_call_terminate
.LBB15_281:                             # %terminate.lpad.i.i433
.Ltmp280:
	movq	%rax, %rdi
	callq	__clang_call_terminate
.LBB15_282:                             # %lpad33
.Ltmp273:
	jmp	.LBB15_315
.LBB15_283:                             # %lpad10
.Ltmp319:
	movq	%rax, %r14
	jmp	.LBB15_321
.LBB15_284:                             # %terminate.lpad.i5.i
.Ltmp316:
	movq	%rax, %rdi
	callq	__clang_call_terminate
.LBB15_285:                             # %terminate.lpad.i2.i
.Ltmp313:
	movq	%rax, %rdi
	callq	__clang_call_terminate
.LBB15_286:                             # %terminate.lpad.i.i
.Ltmp310:
	movq	%rax, %rdi
	callq	__clang_call_terminate
.LBB15_287:                             # %lpad14
.Ltmp303:
	movq	%rax, %r14
	jmp	.LBB15_321
.LBB15_288:                             # %lpad155
.Ltmp391:
	jmp	.LBB15_289
.LBB15_291:                             # %lpad39
.Ltmp265:
	jmp	.LBB15_315
.LBB15_292:                             # %terminate.lpad.i
.Ltmp292:
	movq	%rax, %rdi
	callq	__clang_call_terminate
.LBB15_293:                             # %lpad20
.Ltmp237:
	movq	%rax, %r14
	jmp	.LBB15_321
.LBB15_294:                             # %lpad153
.Ltmp388:
	movq	%rax, %r14
	jmp	.LBB15_322
.LBB15_295:                             # %terminate.lpad.i163
.Ltmp322:
	movq	%rax, %rdi
	callq	__clang_call_terminate
.LBB15_296:                             # %lpad3
.Ltmp234:
	movq	%rax, %r14
	jmp	.LBB15_322
.LBB15_297:                             # %lpad
.Ltmp335:
	movq	%rax, %r14
	jmp	.LBB15_323
.LBB15_298:                             # %lpad83
.Ltmp382:
.LBB15_299:                             # %ehcleanup162
	movq	%rax, %r14
	movq	%r15, %rbx
	jmp	.LBB15_323
.LBB15_300:                             # %lpad112
.Ltmp355:
	movq	%rax, %r14
	jmp	.LBB15_322
.LBB15_301:                             # %lpad126
.Ltmp366:
	movq	%rax, %r14
	movq	8(%rsp), %rdi
	leaq	24(%rsp), %rax
	movq	%rax, 152(%rsp)                 # 8-byte Spill
	cmpq	%rax, %rdi
	jne	.LBB15_308
	jmp	.LBB15_322
.LBB15_302:                             # %lpad103
.Ltmp350:
	movq	%rax, %r14
	movq	8(%rsp), %rdi
	leaq	24(%rsp), %rax
	movq	%rax, 160(%rsp)                 # 8-byte Spill
	cmpq	%rax, %rdi
	jne	.LBB15_306
	jmp	.LBB15_322
.LBB15_303:                             # %lpad114
.Ltmp358:
.LBB15_289:                             # %lpad155
	movq	%rax, %r14
	movq	48(%rsp), %rdi
	leaq	64(%rsp), %rax
	cmpq	%rax, %rdi
	je	.LBB15_322
# %bb.290:                              # %if.then.i.i386
	movq	64(%rsp), %rsi
	incq	%rsi
	callq	_ZdlPvm@PLT
	jmp	.LBB15_322
.LBB15_304:                             # %lpad90
.Ltmp340:
	jmp	.LBB15_318
.LBB15_305:                             # %lpad.i.i
.Ltmp347:
	movq	%rax, %r14
	movq	48(%rsp), %rdi
	cmpq	%rbx, %rdi
	je	.LBB15_322
.LBB15_306:                             # %ehcleanup107.sink.split
	movq	160(%rsp), %rax                 # 8-byte Reload
	movq	(%rax), %rsi
	incq	%rsi
	callq	_ZdlPvm@PLT
	jmp	.LBB15_322
.LBB15_307:                             # %lpad.i.i511
.Ltmp363:
	movq	%rax, %r14
	movq	48(%rsp), %rdi
	cmpq	%rbx, %rdi
	je	.LBB15_322
.LBB15_308:                             # %ehcleanup130.sink.split
	movq	152(%rsp), %rax                 # 8-byte Reload
	movq	(%rax), %rsi
	incq	%rsi
	callq	_ZdlPvm@PLT
	jmp	.LBB15_322
.LBB15_309:                             # %lpad135
.Ltmp376:
	jmp	.LBB15_318
.LBB15_310:                             # %lpad.i81
.Ltmp270:
	jmp	.LBB15_313
.LBB15_311:                             # %lpad93.loopexit.split-lp
.Ltmp379:
	jmp	.LBB15_318
.LBB15_312:                             # %lpad.i39
.Ltmp297:
.LBB15_313:                             # %ehcleanup59
	movq	%rax, %r14
	leaq	48(%rsp), %rdi
	callq	_ZN8pybind116detail25error_fetch_and_normalizeD2Ev
	jmp	.LBB15_316
.LBB15_314:                             # %lpad54
.Ltmp246:
.LBB15_315:                             # %ehcleanup59
	movq	%rax, %r14
.LBB15_316:                             # %ehcleanup59
.Ltmp298:
	leaq	200(%rsp), %rdi
	callq	_ZNKR8pybind116handle7dec_refEv
.Ltmp299:
	jmp	.LBB15_321
.LBB15_317:                             # %lpad93.loopexit
.Ltmp371:
.LBB15_318:                             # %ehcleanup162
	movq	%rax, %r14
	jmp	.LBB15_322
.LBB15_319:                             # %terminate.lpad.i159
.Ltmp300:
	movq	%rax, %rdi
	callq	__clang_call_terminate
.LBB15_320:                             # %lpad.i
.Ltmp327:
	movq	%rax, %r14
	leaq	48(%rsp), %rdi
	callq	_ZN8pybind116detail25error_fetch_and_normalizeD2Ev
.LBB15_321:                             # %ehcleanup62
.Ltmp328:
	leaq	144(%rsp), %rdi
	callq	_ZNKR8pybind116handle7dec_refEv
.Ltmp329:
.LBB15_322:                             # %ehcleanup64
	movq	(%rsp), %rbx                    # 8-byte Reload
.LBB15_323:                             # %ehcleanup162
	movq	112(%rsp), %rdi
	leaq	128(%rsp), %rax
	cmpq	%rax, %rdi
	jne	.LBB15_326
# %bb.324:                              # %_ZNSt7__cxx1112basic_stringIcSt11char_traitsIcESaIcEED2Ev.exit399
	movq	(%rbx), %rdi
	movq	40(%rsp), %rax                  # 8-byte Reload
	cmpq	%rax, %rdi
	jne	.LBB15_327
.LBB15_325:                             # %_ZNSt7__cxx1112basic_stringIcSt11char_traitsIcESaIcEED2Ev.exit404
	movq	%r14, %rdi
	callq	_Unwind_Resume@PLT
.LBB15_326:                             # %if.then.i.i396
	movq	128(%rsp), %rsi
	incq	%rsi
	callq	_ZdlPvm@PLT
	movq	(%rbx), %rdi
	movq	40(%rsp), %rax                  # 8-byte Reload
	cmpq	%rax, %rdi
	je	.LBB15_325
.LBB15_327:                             # %if.then.i.i401
	movq	(%rax), %rsi
	incq	%rsi
	callq	_ZdlPvm@PLT
	movq	%r14, %rdi
	callq	_Unwind_Resume@PLT
.LBB15_328:                             # %terminate.lpad.i167
.Ltmp330:
	movq	%rax, %rdi
	callq	__clang_call_terminate
.Lfunc_end15:
	.size	_ZNK8pybind116detail25error_fetch_and_normalize22format_value_and_traceB5cxx11Ev, .Lfunc_end15-_ZNK8pybind116detail25error_fetch_and_normalize22format_value_and_traceB5cxx11Ev
	.cfi_endproc
	.section	.gcc_except_table._ZNK8pybind116detail25error_fetch_and_normalize22format_value_and_traceB5cxx11Ev,"aG",@progbits,_ZNK8pybind116detail25error_fetch_and_normalize22format_value_and_traceB5cxx11Ev,comdat
	.p2align	2, 0x0
GCC_except_table15:
.Lexception8:
	.byte	255                             # @LPStart Encoding = omit
	.byte	155                             # @TType Encoding = indirect pcrel sdata4
	.uleb128 .Lttbase5-.Lttbaseref5
.Lttbaseref5:
	.byte	1                               # Call site Encoding = uleb128
	.uleb128 .Lcst_end8-.Lcst_begin8
.Lcst_begin8:
	.uleb128 .Ltmp232-.Lfunc_begin8         # >> Call Site 1 <<
	.uleb128 .Ltmp233-.Ltmp232              #   Call between .Ltmp232 and .Ltmp233
	.uleb128 .Ltmp234-.Lfunc_begin8         #     jumps to .Ltmp234
	.byte	0                               #   On action: cleanup
	.uleb128 .Ltmp235-.Lfunc_begin8         # >> Call Site 2 <<
	.uleb128 .Ltmp236-.Ltmp235              #   Call between .Ltmp235 and .Ltmp236
	.uleb128 .Ltmp237-.Lfunc_begin8         #     jumps to .Ltmp237
	.byte	0                               #   On action: cleanup
	.uleb128 .Ltmp238-.Lfunc_begin8         # >> Call Site 3 <<
	.uleb128 .Ltmp239-.Ltmp238              #   Call between .Ltmp238 and .Ltmp239
	.uleb128 .Ltmp265-.Lfunc_begin8         #     jumps to .Ltmp265
	.byte	0                               #   On action: cleanup
	.uleb128 .Ltmp240-.Lfunc_begin8         # >> Call Site 4 <<
	.uleb128 .Ltmp241-.Ltmp240              #   Call between .Ltmp240 and .Ltmp241
	.uleb128 .Ltmp246-.Lfunc_begin8         #     jumps to .Ltmp246
	.byte	0                               #   On action: cleanup
	.uleb128 .Ltmp331-.Lfunc_begin8         # >> Call Site 5 <<
	.uleb128 .Ltmp332-.Ltmp331              #   Call between .Ltmp331 and .Ltmp332
	.uleb128 .Ltmp335-.Lfunc_begin8         #     jumps to .Ltmp335
	.byte	0                               #   On action: cleanup
	.uleb128 .Ltmp301-.Lfunc_begin8         # >> Call Site 6 <<
	.uleb128 .Ltmp302-.Ltmp301              #   Call between .Ltmp301 and .Ltmp302
	.uleb128 .Ltmp303-.Lfunc_begin8         #     jumps to .Ltmp303
	.byte	0                               #   On action: cleanup
	.uleb128 .Ltmp304-.Lfunc_begin8         # >> Call Site 7 <<
	.uleb128 .Ltmp307-.Ltmp304              #   Call between .Ltmp304 and .Ltmp307
	.uleb128 .Ltmp327-.Lfunc_begin8         #     jumps to .Ltmp327
	.byte	0                               #   On action: cleanup
	.uleb128 .Ltmp271-.Lfunc_begin8         # >> Call Site 8 <<
	.uleb128 .Ltmp272-.Ltmp271              #   Call between .Ltmp271 and .Ltmp272
	.uleb128 .Ltmp273-.Lfunc_begin8         #     jumps to .Ltmp273
	.byte	0                               #   On action: cleanup
	.uleb128 .Ltmp274-.Lfunc_begin8         # >> Call Site 9 <<
	.uleb128 .Ltmp277-.Ltmp274              #   Call between .Ltmp274 and .Ltmp277
	.uleb128 .Ltmp297-.Lfunc_begin8         #     jumps to .Ltmp297
	.byte	0                               #   On action: cleanup
	.uleb128 .Ltmp247-.Lfunc_begin8         # >> Call Site 10 <<
	.uleb128 .Ltmp248-.Ltmp247              #   Call between .Ltmp247 and .Ltmp248
	.uleb128 .Ltmp249-.Lfunc_begin8         #     jumps to .Ltmp249
	.byte	0                               #   On action: cleanup
	.uleb128 .Ltmp250-.Lfunc_begin8         # >> Call Site 11 <<
	.uleb128 .Ltmp253-.Ltmp250              #   Call between .Ltmp250 and .Ltmp253
	.uleb128 .Ltmp270-.Lfunc_begin8         #     jumps to .Ltmp270
	.byte	0                               #   On action: cleanup
	.uleb128 .Ltmp253-.Lfunc_begin8         # >> Call Site 12 <<
	.uleb128 .Ltmp308-.Ltmp253              #   Call between .Ltmp253 and .Ltmp308
	.byte	0                               #     has no landing pad
	.byte	0                               #   On action: cleanup
	.uleb128 .Ltmp308-.Lfunc_begin8         # >> Call Site 13 <<
	.uleb128 .Ltmp309-.Ltmp308              #   Call between .Ltmp308 and .Ltmp309
	.uleb128 .Ltmp310-.Lfunc_begin8         #     jumps to .Ltmp310
	.byte	1                               #   On action: 1
	.uleb128 .Ltmp311-.Lfunc_begin8         # >> Call Site 14 <<
	.uleb128 .Ltmp312-.Ltmp311              #   Call between .Ltmp311 and .Ltmp312
	.uleb128 .Ltmp313-.Lfunc_begin8         #     jumps to .Ltmp313
	.byte	1                               #   On action: 1
	.uleb128 .Ltmp314-.Lfunc_begin8         # >> Call Site 15 <<
	.uleb128 .Ltmp315-.Ltmp314              #   Call between .Ltmp314 and .Ltmp315
	.uleb128 .Ltmp316-.Lfunc_begin8         #     jumps to .Ltmp316
	.byte	1                               #   On action: 1
	.uleb128 .Ltmp315-.Lfunc_begin8         # >> Call Site 16 <<
	.uleb128 .Ltmp278-.Ltmp315              #   Call between .Ltmp315 and .Ltmp278
	.byte	0                               #     has no landing pad
	.byte	0                               #   On action: cleanup
	.uleb128 .Ltmp278-.Lfunc_begin8         # >> Call Site 17 <<
	.uleb128 .Ltmp279-.Ltmp278              #   Call between .Ltmp278 and .Ltmp279
	.uleb128 .Ltmp280-.Lfunc_begin8         #     jumps to .Ltmp280
	.byte	1                               #   On action: 1
	.uleb128 .Ltmp281-.Lfunc_begin8         # >> Call Site 18 <<
	.uleb128 .Ltmp282-.Ltmp281              #   Call between .Ltmp281 and .Ltmp282
	.uleb128 .Ltmp283-.Lfunc_begin8         #     jumps to .Ltmp283
	.byte	1                               #   On action: 1
	.uleb128 .Ltmp284-.Lfunc_begin8         # >> Call Site 19 <<
	.uleb128 .Ltmp285-.Ltmp284              #   Call between .Ltmp284 and .Ltmp285
	.uleb128 .Ltmp286-.Lfunc_begin8         #     jumps to .Ltmp286
	.byte	1                               #   On action: 1
	.uleb128 .Ltmp285-.Lfunc_begin8         # >> Call Site 20 <<
	.uleb128 .Ltmp254-.Ltmp285              #   Call between .Ltmp285 and .Ltmp254
	.byte	0                               #     has no landing pad
	.byte	0                               #   On action: cleanup
	.uleb128 .Ltmp254-.Lfunc_begin8         # >> Call Site 21 <<
	.uleb128 .Ltmp255-.Ltmp254              #   Call between .Ltmp254 and .Ltmp255
	.uleb128 .Ltmp256-.Lfunc_begin8         #     jumps to .Ltmp256
	.byte	1                               #   On action: 1
	.uleb128 .Ltmp257-.Lfunc_begin8         # >> Call Site 22 <<
	.uleb128 .Ltmp258-.Ltmp257              #   Call between .Ltmp257 and .Ltmp258
	.uleb128 .Ltmp259-.Lfunc_begin8         #     jumps to .Ltmp259
	.byte	1                               #   On action: 1
	.uleb128 .Ltmp260-.Lfunc_begin8         # >> Call Site 23 <<
	.uleb128 .Ltmp261-.Ltmp260              #   Call between .Ltmp260 and .Ltmp261
	.uleb128 .Ltmp262-.Lfunc_begin8         #     jumps to .Ltmp262
	.byte	1                               #   On action: 1
	.uleb128 .Ltmp261-.Lfunc_begin8         # >> Call Site 24 <<
	.uleb128 .Ltmp317-.Ltmp261              #   Call between .Ltmp261 and .Ltmp317
	.byte	0                               #     has no landing pad
	.byte	0                               #   On action: cleanup
	.uleb128 .Ltmp317-.Lfunc_begin8         # >> Call Site 25 <<
	.uleb128 .Ltmp318-.Ltmp317              #   Call between .Ltmp317 and .Ltmp318
	.uleb128 .Ltmp319-.Lfunc_begin8         #     jumps to .Ltmp319
	.byte	0                               #   On action: cleanup
	.uleb128 .Ltmp318-.Lfunc_begin8         # >> Call Site 26 <<
	.uleb128 .Ltmp287-.Ltmp318              #   Call between .Ltmp318 and .Ltmp287
	.byte	0                               #     has no landing pad
	.byte	0                               #   On action: cleanup
	.uleb128 .Ltmp287-.Lfunc_begin8         # >> Call Site 27 <<
	.uleb128 .Ltmp288-.Ltmp287              #   Call between .Ltmp287 and .Ltmp288
	.uleb128 .Ltmp289-.Lfunc_begin8         #     jumps to .Ltmp289
	.byte	0                               #   On action: cleanup
	.uleb128 .Ltmp288-.Lfunc_begin8         # >> Call Site 28 <<
	.uleb128 .Ltmp263-.Ltmp288              #   Call between .Ltmp288 and .Ltmp263
	.byte	0                               #     has no landing pad
	.byte	0                               #   On action: cleanup
	.uleb128 .Ltmp263-.Lfunc_begin8         # >> Call Site 29 <<
	.uleb128 .Ltmp264-.Ltmp263              #   Call between .Ltmp263 and .Ltmp264
	.uleb128 .Ltmp265-.Lfunc_begin8         #     jumps to .Ltmp265
	.byte	0                               #   On action: cleanup
	.uleb128 .Ltmp290-.Lfunc_begin8         # >> Call Site 30 <<
	.uleb128 .Ltmp291-.Ltmp290              #   Call between .Ltmp290 and .Ltmp291
	.uleb128 .Ltmp292-.Lfunc_begin8         #     jumps to .Ltmp292
	.byte	1                               #   On action: 1
	.uleb128 .Ltmp320-.Lfunc_begin8         # >> Call Site 31 <<
	.uleb128 .Ltmp321-.Ltmp320              #   Call between .Ltmp320 and .Ltmp321
	.uleb128 .Ltmp322-.Lfunc_begin8         #     jumps to .Ltmp322
	.byte	1                               #   On action: 1
	.uleb128 .Ltmp333-.Lfunc_begin8         # >> Call Site 32 <<
	.uleb128 .Ltmp334-.Ltmp333              #   Call between .Ltmp333 and .Ltmp334
	.uleb128 .Ltmp335-.Lfunc_begin8         #     jumps to .Ltmp335
	.byte	0                               #   On action: cleanup
	.uleb128 .Ltmp336-.Lfunc_begin8         # >> Call Site 33 <<
	.uleb128 .Ltmp337-.Ltmp336              #   Call between .Ltmp336 and .Ltmp337
	.uleb128 .Ltmp382-.Lfunc_begin8         #     jumps to .Ltmp382
	.byte	0                               #   On action: cleanup
	.uleb128 .Ltmp383-.Lfunc_begin8         # >> Call Site 34 <<
	.uleb128 .Ltmp384-.Ltmp383              #   Call between .Ltmp383 and .Ltmp384
	.uleb128 .Ltmp385-.Lfunc_begin8         #     jumps to .Ltmp385
	.byte	0                               #   On action: cleanup
	.uleb128 .Ltmp338-.Lfunc_begin8         # >> Call Site 35 <<
	.uleb128 .Ltmp339-.Ltmp338              #   Call between .Ltmp338 and .Ltmp339
	.uleb128 .Ltmp340-.Lfunc_begin8         #     jumps to .Ltmp340
	.byte	0                               #   On action: cleanup
	.uleb128 .Ltmp341-.Lfunc_begin8         # >> Call Site 36 <<
	.uleb128 .Ltmp344-.Ltmp341              #   Call between .Ltmp341 and .Ltmp344
	.uleb128 .Ltmp371-.Lfunc_begin8         #     jumps to .Ltmp371
	.byte	0                               #   On action: cleanup
	.uleb128 .Ltmp345-.Lfunc_begin8         # >> Call Site 37 <<
	.uleb128 .Ltmp346-.Ltmp345              #   Call between .Ltmp345 and .Ltmp346
	.uleb128 .Ltmp347-.Lfunc_begin8         #     jumps to .Ltmp347
	.byte	0                               #   On action: cleanup
	.uleb128 .Ltmp348-.Lfunc_begin8         # >> Call Site 38 <<
	.uleb128 .Ltmp349-.Ltmp348              #   Call between .Ltmp348 and .Ltmp349
	.uleb128 .Ltmp350-.Lfunc_begin8         #     jumps to .Ltmp350
	.byte	0                               #   On action: cleanup
	.uleb128 .Ltmp349-.Lfunc_begin8         # >> Call Site 39 <<
	.uleb128 .Ltmp351-.Ltmp349              #   Call between .Ltmp349 and .Ltmp351
	.byte	0                               #     has no landing pad
	.byte	0                               #   On action: cleanup
	.uleb128 .Ltmp351-.Lfunc_begin8         # >> Call Site 40 <<
	.uleb128 .Ltmp352-.Ltmp351              #   Call between .Ltmp351 and .Ltmp352
	.uleb128 .Ltmp371-.Lfunc_begin8         #     jumps to .Ltmp371
	.byte	0                               #   On action: cleanup
	.uleb128 .Ltmp353-.Lfunc_begin8         # >> Call Site 41 <<
	.uleb128 .Ltmp354-.Ltmp353              #   Call between .Ltmp353 and .Ltmp354
	.uleb128 .Ltmp355-.Lfunc_begin8         #     jumps to .Ltmp355
	.byte	0                               #   On action: cleanup
	.uleb128 .Ltmp354-.Lfunc_begin8         # >> Call Site 42 <<
	.uleb128 .Ltmp356-.Ltmp354              #   Call between .Ltmp354 and .Ltmp356
	.byte	0                               #     has no landing pad
	.byte	0                               #   On action: cleanup
	.uleb128 .Ltmp356-.Lfunc_begin8         # >> Call Site 43 <<
	.uleb128 .Ltmp357-.Ltmp356              #   Call between .Ltmp356 and .Ltmp357
	.uleb128 .Ltmp358-.Lfunc_begin8         #     jumps to .Ltmp358
	.byte	0                               #   On action: cleanup
	.uleb128 .Ltmp357-.Lfunc_begin8         # >> Call Site 44 <<
	.uleb128 .Ltmp359-.Ltmp357              #   Call between .Ltmp357 and .Ltmp359
	.byte	0                               #     has no landing pad
	.byte	0                               #   On action: cleanup
	.uleb128 .Ltmp359-.Lfunc_begin8         # >> Call Site 45 <<
	.uleb128 .Ltmp360-.Ltmp359              #   Call between .Ltmp359 and .Ltmp360
	.uleb128 .Ltmp371-.Lfunc_begin8         #     jumps to .Ltmp371
	.byte	0                               #   On action: cleanup
	.uleb128 .Ltmp361-.Lfunc_begin8         # >> Call Site 46 <<
	.uleb128 .Ltmp362-.Ltmp361              #   Call between .Ltmp361 and .Ltmp362
	.uleb128 .Ltmp363-.Lfunc_begin8         #     jumps to .Ltmp363
	.byte	0                               #   On action: cleanup
	.uleb128 .Ltmp364-.Lfunc_begin8         # >> Call Site 47 <<
	.uleb128 .Ltmp365-.Ltmp364              #   Call between .Ltmp364 and .Ltmp365
	.uleb128 .Ltmp366-.Lfunc_begin8         #     jumps to .Ltmp366
	.byte	0                               #   On action: cleanup
	.uleb128 .Ltmp365-.Lfunc_begin8         # >> Call Site 48 <<
	.uleb128 .Ltmp367-.Ltmp365              #   Call between .Ltmp365 and .Ltmp367
	.byte	0                               #     has no landing pad
	.byte	0                               #   On action: cleanup
	.uleb128 .Ltmp367-.Lfunc_begin8         # >> Call Site 49 <<
	.uleb128 .Ltmp370-.Ltmp367              #   Call between .Ltmp367 and .Ltmp370
	.uleb128 .Ltmp371-.Lfunc_begin8         #     jumps to .Ltmp371
	.byte	0                               #   On action: cleanup
	.uleb128 .Ltmp372-.Lfunc_begin8         # >> Call Site 50 <<
	.uleb128 .Ltmp375-.Ltmp372              #   Call between .Ltmp372 and .Ltmp375
	.uleb128 .Ltmp376-.Lfunc_begin8         #     jumps to .Ltmp376
	.byte	0                               #   On action: cleanup
	.uleb128 .Ltmp386-.Lfunc_begin8         # >> Call Site 51 <<
	.uleb128 .Ltmp387-.Ltmp386              #   Call between .Ltmp386 and .Ltmp387
	.uleb128 .Ltmp388-.Lfunc_begin8         #     jumps to .Ltmp388
	.byte	0                               #   On action: cleanup
	.uleb128 .Ltmp389-.Lfunc_begin8         # >> Call Site 52 <<
	.uleb128 .Ltmp390-.Ltmp389              #   Call between .Ltmp389 and .Ltmp390
	.uleb128 .Ltmp391-.Lfunc_begin8         #     jumps to .Ltmp391
	.byte	0                               #   On action: cleanup
	.uleb128 .Ltmp390-.Lfunc_begin8         # >> Call Site 53 <<
	.uleb128 .Ltmp323-.Ltmp390              #   Call between .Ltmp390 and .Ltmp323
	.byte	0                               #     has no landing pad
	.byte	0                               #   On action: cleanup
	.uleb128 .Ltmp323-.Lfunc_begin8         # >> Call Site 54 <<
	.uleb128 .Ltmp324-.Ltmp323              #   Call between .Ltmp323 and .Ltmp324
	.uleb128 .Ltmp327-.Lfunc_begin8         #     jumps to .Ltmp327
	.byte	0                               #   On action: cleanup
	.uleb128 .Ltmp242-.Lfunc_begin8         # >> Call Site 55 <<
	.uleb128 .Ltmp243-.Ltmp242              #   Call between .Ltmp242 and .Ltmp243
	.uleb128 .Ltmp246-.Lfunc_begin8         #     jumps to .Ltmp246
	.byte	0                               #   On action: cleanup
	.uleb128 .Ltmp293-.Lfunc_begin8         # >> Call Site 56 <<
	.uleb128 .Ltmp294-.Ltmp293              #   Call between .Ltmp293 and .Ltmp294
	.uleb128 .Ltmp297-.Lfunc_begin8         #     jumps to .Ltmp297
	.byte	0                               #   On action: cleanup
	.uleb128 .Ltmp377-.Lfunc_begin8         # >> Call Site 57 <<
	.uleb128 .Ltmp378-.Ltmp377              #   Call between .Ltmp377 and .Ltmp378
	.uleb128 .Ltmp379-.Lfunc_begin8         #     jumps to .Ltmp379
	.byte	0                               #   On action: cleanup
	.uleb128 .Ltmp266-.Lfunc_begin8         # >> Call Site 58 <<
	.uleb128 .Ltmp267-.Ltmp266              #   Call between .Ltmp266 and .Ltmp267
	.uleb128 .Ltmp270-.Lfunc_begin8         #     jumps to .Ltmp270
	.byte	0                               #   On action: cleanup
	.uleb128 .Ltmp380-.Lfunc_begin8         # >> Call Site 59 <<
	.uleb128 .Ltmp381-.Ltmp380              #   Call between .Ltmp380 and .Ltmp381
	.uleb128 .Ltmp382-.Lfunc_begin8         #     jumps to .Ltmp382
	.byte	0                               #   On action: cleanup
	.uleb128 .Ltmp325-.Lfunc_begin8         # >> Call Site 60 <<
	.uleb128 .Ltmp326-.Ltmp325              #   Call between .Ltmp325 and .Ltmp326
	.uleb128 .Ltmp327-.Lfunc_begin8         #     jumps to .Ltmp327
	.byte	0                               #   On action: cleanup
	.uleb128 .Ltmp244-.Lfunc_begin8         # >> Call Site 61 <<
	.uleb128 .Ltmp245-.Ltmp244              #   Call between .Ltmp244 and .Ltmp245
	.uleb128 .Ltmp246-.Lfunc_begin8         #     jumps to .Ltmp246
	.byte	0                               #   On action: cleanup
	.uleb128 .Ltmp295-.Lfunc_begin8         # >> Call Site 62 <<
	.uleb128 .Ltmp296-.Ltmp295              #   Call between .Ltmp295 and .Ltmp296
	.uleb128 .Ltmp297-.Lfunc_begin8         #     jumps to .Ltmp297
	.byte	0                               #   On action: cleanup
	.uleb128 .Ltmp268-.Lfunc_begin8         # >> Call Site 63 <<
	.uleb128 .Ltmp269-.Ltmp268              #   Call between .Ltmp268 and .Ltmp269
	.uleb128 .Ltmp270-.Lfunc_begin8         #     jumps to .Ltmp270
	.byte	0                               #   On action: cleanup
	.uleb128 .Ltmp298-.Lfunc_begin8         # >> Call Site 64 <<
	.uleb128 .Ltmp299-.Ltmp298              #   Call between .Ltmp298 and .Ltmp299
	.uleb128 .Ltmp300-.Lfunc_begin8         #     jumps to .Ltmp300
	.byte	1                               #   On action: 1
	.uleb128 .Ltmp328-.Lfunc_begin8         # >> Call Site 65 <<
	.uleb128 .Ltmp329-.Ltmp328              #   Call between .Ltmp328 and .Ltmp329
	.uleb128 .Ltmp330-.Lfunc_begin8         #     jumps to .Ltmp330
	.byte	1                               #   On action: 1
	.uleb128 .Ltmp329-.Lfunc_begin8         # >> Call Site 66 <<
	.uleb128 .Lfunc_end15-.Ltmp329          #   Call between .Ltmp329 and .Lfunc_end15
	.byte	0                               #     has no landing pad
	.byte	0                               #   On action: cleanup
.Lcst_end8:
	.byte	1                               # >> Action Record 1 <<
                                        #   Catch TypeInfo 1
	.byte	0                               #   No further actions
	.p2align	2, 0x0
                                        # >> Catch TypeInfos <<
	.long	0                               # TypeInfo 1
.Lttbase5:
	.p2align	2, 0x0
                                        # -- End function
	.section	.text._ZNSt7__cxx1112basic_stringIcSt11char_traitsIcESaIcEEpLERKS4_,"axG",@progbits,_ZNSt7__cxx1112basic_stringIcSt11char_traitsIcESaIcEEpLERKS4_,comdat
	.weak	_ZNSt7__cxx1112basic_stringIcSt11char_traitsIcESaIcEEpLERKS4_ # -- Begin function _ZNSt7__cxx1112basic_stringIcSt11char_traitsIcESaIcEEpLERKS4_
	.p2align	4, 0x90
	.type	_ZNSt7__cxx1112basic_stringIcSt11char_traitsIcESaIcEEpLERKS4_,@function
_ZNSt7__cxx1112basic_stringIcSt11char_traitsIcESaIcEEpLERKS4_: # @_ZNSt7__cxx1112basic_stringIcSt11char_traitsIcESaIcEEpLERKS4_
	.cfi_startproc
# %bb.0:                                # %entry
	pushq	%r14
	.cfi_def_cfa_offset 16
	pushq	%rbx
	.cfi_def_cfa_offset 24
	pushq	%rax
	.cfi_def_cfa_offset 32
	.cfi_offset %rbx, -24
	.cfi_offset %r14, -16
	movq	%rsi, %rax
	movq	%rdi, %rbx
	movq	8(%rsi), %r8
	movq	(%rdi), %rdi
	movq	8(%rbx), %rsi
	leaq	(%rsi,%r8), %r14
	leaq	16(%rbx), %rcx
	movl	$15, %edx
	cmpq	%rcx, %rdi
	je	.LBB16_2
# %bb.1:                                # %entry
	movq	16(%rbx), %rdx
.LBB16_2:                               # %entry
	movq	(%rax), %rcx
	cmpq	%rdx, %r14
	jbe	.LBB16_3
# %bb.7:                                # %if.else.i.i
	movq	%rbx, %rdi
	xorl	%edx, %edx
	callq	_ZNSt7__cxx1112basic_stringIcSt11char_traitsIcESaIcEE9_M_mutateEmmPKcm@PLT
	jmp	.LBB16_8
.LBB16_3:                               # %if.then.i.i
	testq	%r8, %r8
	je	.LBB16_8
# %bb.4:                                # %if.then3.i.i
	addq	%rsi, %rdi
	cmpq	$1, %r8
	jne	.LBB16_6
# %bb.5:                                # %if.then.i.i.i
	movzbl	(%rcx), %eax
	movb	%al, (%rdi)
	jmp	.LBB16_8
.LBB16_6:                               # %if.end.i.i.i.i
	movq	%rcx, %rsi
	movq	%r8, %rdx
	callq	memcpy@PLT
.LBB16_8:                               # %_ZNSt7__cxx1112basic_stringIcSt11char_traitsIcESaIcEE6appendERKS4_.exit
	movq	%r14, 8(%rbx)
	movq	(%rbx), %rax
	movb	$0, (%rax,%r14)
	movq	%rbx, %rax
	addq	$8, %rsp
	.cfi_def_cfa_offset 24
	popq	%rbx
	.cfi_def_cfa_offset 16
	popq	%r14
	.cfi_def_cfa_offset 8
	retq
.Lfunc_end16:
	.size	_ZNSt7__cxx1112basic_stringIcSt11char_traitsIcESaIcEEpLERKS4_, .Lfunc_end16-_ZNSt7__cxx1112basic_stringIcSt11char_traitsIcESaIcEEpLERKS4_
	.cfi_endproc
                                        # -- End function
	.section	.text._ZNSt7__cxx1112basic_stringIcSt11char_traitsIcESaIcEE10_M_replaceEmmPKcm,"axG",@progbits,_ZNSt7__cxx1112basic_stringIcSt11char_traitsIcESaIcEE10_M_replaceEmmPKcm,comdat
	.weak	_ZNSt7__cxx1112basic_stringIcSt11char_traitsIcESaIcEE10_M_replaceEmmPKcm # -- Begin function _ZNSt7__cxx1112basic_stringIcSt11char_traitsIcESaIcEE10_M_replaceEmmPKcm
	.p2align	4, 0x90
	.type	_ZNSt7__cxx1112basic_stringIcSt11char_traitsIcESaIcEE10_M_replaceEmmPKcm,@function
_ZNSt7__cxx1112basic_stringIcSt11char_traitsIcESaIcEE10_M_replaceEmmPKcm: # @_ZNSt7__cxx1112basic_stringIcSt11char_traitsIcESaIcEE10_M_replaceEmmPKcm
	.cfi_startproc
# %bb.0:                                # %entry
	pushq	%rbp
	.cfi_def_cfa_offset 16
	pushq	%r15
	.cfi_def_cfa_offset 24
	pushq	%r14
	.cfi_def_cfa_offset 32
	pushq	%r13
	.cfi_def_cfa_offset 40
	pushq	%r12
	.cfi_def_cfa_offset 48
	pushq	%rbx
	.cfi_def_cfa_offset 56
	subq	$40, %rsp
	.cfi_def_cfa_offset 96
	.cfi_offset %rbx, -56
	.cfi_offset %r12, -48
	.cfi_offset %r13, -40
	.cfi_offset %r14, -32
	.cfi_offset %r15, -24
	.cfi_offset %rbp, -16
	movq	%rdi, %rbx
	movq	8(%rdi), %rbp
	movq	%rdx, %rax
	subq	%rbp, %rax
	movabsq	$9223372036854775807, %rdi      # imm = 0x7FFFFFFFFFFFFFFF
	addq	%rax, %rdi
	cmpq	%r8, %rdi
	jb	.LBB17_40
# %bb.1:                                # %_ZNKSt7__cxx1112basic_stringIcSt11char_traitsIcESaIcEE15_M_check_lengthEmmPKc.exit
	movq	%r8, %r13
	subq	%rdx, %r13
	movq	%r13, %r12
	addq	%rbp, %r12
	movq	(%rbx), %rax
	leaq	16(%rbx), %r9
	movl	$15, %edi
	cmpq	%r9, %rax
	je	.LBB17_3
# %bb.2:                                # %_ZNKSt7__cxx1112basic_stringIcSt11char_traitsIcESaIcEE15_M_check_lengthEmmPKc.exit
	movq	16(%rbx), %rdi
.LBB17_3:                               # %_ZNKSt7__cxx1112basic_stringIcSt11char_traitsIcESaIcEE15_M_check_lengthEmmPKc.exit
	cmpq	%rdi, %r12
	jbe	.LBB17_5
# %bb.4:                                # %if.else52
	movq	%rbx, %rdi
	callq	_ZNSt7__cxx1112basic_stringIcSt11char_traitsIcESaIcEE9_M_mutateEmmPKcm@PLT
	jmp	.LBB17_34
.LBB17_5:                               # %if.then
	leaq	(%rax,%rsi), %r14
	addq	%rdx, %rsi
	movq	%rbp, %r15
	subq	%rsi, %r15
	cmpq	%rcx, %rax
	seta	%dil
	addq	%rbp, %rax
	cmpq	%rcx, %rax
	setb	%al
	orb	%dil, %al
	cmpb	$1, %al
	jne	.LBB17_10
# %bb.6:                                # %if.then7
	cmpq	%rsi, %rbp
	sete	%al
	cmpq	%rdx, %r8
	sete	%sil
	orb	%al, %sil
	jne	.LBB17_27
# %bb.7:                                # %if.then9
	testq	%r15, %r15
	je	.LBB17_27
# %bb.8:                                # %if.then9
	leaq	(%r14,%r8), %rdi
	addq	%r14, %rdx
	cmpq	$1, %r15
	jne	.LBB17_26
# %bb.9:                                # %if.then.i69
	movzbl	(%rdx), %eax
	movb	%al, (%rdi)
	jmp	.LBB17_27
.LBB17_10:                              # %if.else
	leaq	-1(%r8), %rax
	cmpq	%rdx, %rax
	jae	.LBB17_14
# %bb.11:                               # %if.then18
	cmpq	$1, %r8
	jne	.LBB17_13
# %bb.12:                               # %if.then.i72
	movzbl	(%rcx), %eax
	movb	%al, (%r14)
	jmp	.LBB17_14
.LBB17_13:                              # %if.end.i.i73
	movq	%r14, %rdi
	movq	%rsi, 32(%rsp)                  # 8-byte Spill
	movq	%rcx, %rsi
	movq	%rdx, 8(%rsp)                   # 8-byte Spill
	movq	%r8, %rdx
	movq	%r8, 24(%rsp)                   # 8-byte Spill
	movq	%rcx, 16(%rsp)                  # 8-byte Spill
	callq	memmove@PLT
	movq	32(%rsp), %rsi                  # 8-byte Reload
	movq	8(%rsp), %rdx                   # 8-byte Reload
	movq	16(%rsp), %rcx                  # 8-byte Reload
	movq	24(%rsp), %r8                   # 8-byte Reload
.LBB17_14:                              # %if.end19
	cmpq	%rsi, %rbp
	sete	%al
	cmpq	%rdx, %r8
	sete	%sil
	orb	%al, %sil
	jne	.LBB17_18
# %bb.15:                               # %if.then23
	testq	%r15, %r15
	je	.LBB17_18
# %bb.16:                               # %if.then23
	leaq	(%r14,%r8), %rdi
	leaq	(%r14,%rdx), %rsi
	cmpq	$1, %r15
	jne	.LBB17_30
# %bb.17:                               # %if.then.i75
	movzbl	(%rsi), %eax
	movb	%al, (%rdi)
.LBB17_18:                              # %if.end26
	cmpq	%rdx, %r8
	jbe	.LBB17_34
.LBB17_19:                              # %if.then28
	leaq	(%rcx,%r8), %rax
	addq	%r14, %rdx
	cmpq	%rdx, %rax
	jbe	.LBB17_24
# %bb.20:                               # %if.else33
	subq	%rcx, %rdx
	jbe	.LBB17_31
# %bb.21:                               # %if.else40
	je	.LBB17_36
# %bb.22:                               # %if.else40
	cmpq	$1, %rdx
	jne	.LBB17_35
# %bb.23:                               # %if.then.i84
	movzbl	(%rcx), %eax
	movb	%al, (%r14)
	jmp	.LBB17_36
.LBB17_24:                              # %if.then32
	cmpq	$1, %r8
	je	.LBB17_29
# %bb.25:                               # %if.end.i.i79
	movq	%r14, %rdi
	movq	%rcx, %rsi
	movq	%r8, %rdx
	callq	memmove@PLT
	jmp	.LBB17_34
.LBB17_26:                              # %if.end.i.i
	movq	%rdx, %rsi
	movq	%r15, %rdx
	movq	%r8, %r15
	movq	%rcx, %r13
	callq	memmove@PLT
	movq	%r13, %rcx
	movq	%r15, %r8
.LBB17_27:                              # %if.end
	testq	%r8, %r8
	je	.LBB17_34
# %bb.28:                               # %if.end
	cmpq	$1, %r8
	jne	.LBB17_32
.LBB17_29:                              # %if.then.i70
	movzbl	(%rcx), %eax
	movb	%al, (%r14)
	jmp	.LBB17_34
.LBB17_30:                              # %if.end.i.i76
	movq	%rdx, 8(%rsp)                   # 8-byte Spill
	movq	%r15, %rdx
	movq	%r8, %r15
	movq	%rcx, %rbp
	callq	memmove@PLT
	movq	8(%rsp), %rdx                   # 8-byte Reload
	movq	%rbp, %rcx
	movq	%r15, %r8
	cmpq	%rdx, %r8
	ja	.LBB17_19
	jmp	.LBB17_34
.LBB17_31:                              # %if.then36
	addq	%r13, %rcx
	cmpq	$1, %r8
	je	.LBB17_29
.LBB17_32:                              # %if.end.i.i71
	movq	%r14, %rdi
	movq	%rcx, %rsi
	movq	%r8, %rdx
.LBB17_33:                              # %if.end53
	callq	memcpy@PLT
.LBB17_34:                              # %if.end53
	movq	%r12, 8(%rbx)
	movq	(%rbx), %rax
	movb	$0, (%rax,%r12)
	movq	%rbx, %rax
	addq	$40, %rsp
	.cfi_def_cfa_offset 56
	popq	%rbx
	.cfi_def_cfa_offset 48
	popq	%r12
	.cfi_def_cfa_offset 40
	popq	%r13
	.cfi_def_cfa_offset 32
	popq	%r14
	.cfi_def_cfa_offset 24
	popq	%r15
	.cfi_def_cfa_offset 16
	popq	%rbp
	.cfi_def_cfa_offset 8
	retq
.LBB17_35:                              # %if.end.i.i85
	.cfi_def_cfa_offset 96
	movq	%r14, %rdi
	movq	%rcx, %rsi
	movq	%rdx, %r15
	movq	%r8, %r13
	callq	memmove@PLT
	movq	%r15, %rdx
	movq	%r13, %r8
.LBB17_36:                              # %_ZNSt7__cxx1112basic_stringIcSt11char_traitsIcESaIcEE7_S_moveEPcPKcm.exit86
	movq	%r8, %rax
	subq	%rdx, %rax
	je	.LBB17_34
# %bb.37:                               # %_ZNSt7__cxx1112basic_stringIcSt11char_traitsIcESaIcEE7_S_moveEPcPKcm.exit86
	addq	%r14, %rdx
	addq	%r14, %r8
	cmpq	$1, %rax
	jne	.LBB17_39
# %bb.38:                               # %if.then.i87
	movzbl	(%r8), %eax
	movb	%al, (%rdx)
	jmp	.LBB17_34
.LBB17_39:                              # %if.end.i.i88
	movq	%rdx, %rdi
	movq	%r8, %rsi
	movq	%rax, %rdx
	jmp	.LBB17_33
.LBB17_40:                              # %if.then.i
	leaq	.L.str.9(%rip), %rdi
	callq	_ZSt20__throw_length_errorPKc@PLT
.Lfunc_end17:
	.size	_ZNSt7__cxx1112basic_stringIcSt11char_traitsIcESaIcEE10_M_replaceEmmPKcm, .Lfunc_end17-_ZNSt7__cxx1112basic_stringIcSt11char_traitsIcESaIcEE10_M_replaceEmmPKcm
	.cfi_endproc
                                        # -- End function
	.section	.text._ZNSt7__cxx1112basic_stringIcSt11char_traitsIcESaIcEE9_M_mutateEmmPKcm,"axG",@progbits,_ZNSt7__cxx1112basic_stringIcSt11char_traitsIcESaIcEE9_M_mutateEmmPKcm,comdat
	.weak	_ZNSt7__cxx1112basic_stringIcSt11char_traitsIcESaIcEE9_M_mutateEmmPKcm # -- Begin function _ZNSt7__cxx1112basic_stringIcSt11char_traitsIcESaIcEE9_M_mutateEmmPKcm
	.p2align	4, 0x90
	.type	_ZNSt7__cxx1112basic_stringIcSt11char_traitsIcESaIcEE9_M_mutateEmmPKcm,@function
_ZNSt7__cxx1112basic_stringIcSt11char_traitsIcESaIcEE9_M_mutateEmmPKcm: # @_ZNSt7__cxx1112basic_stringIcSt11char_traitsIcESaIcEE9_M_mutateEmmPKcm
	.cfi_startproc
# %bb.0:                                # %entry
	pushq	%rbp
	.cfi_def_cfa_offset 16
	pushq	%r15
	.cfi_def_cfa_offset 24
	pushq	%r14
	.cfi_def_cfa_offset 32
	pushq	%r13
	.cfi_def_cfa_offset 40
	pushq	%r12
	.cfi_def_cfa_offset 48
	pushq	%rbx
	.cfi_def_cfa_offset 56
	subq	$40, %rsp
	.cfi_def_cfa_offset 96
	.cfi_offset %rbx, -56
	.cfi_offset %r12, -48
	.cfi_offset %r13, -40
	.cfi_offset %r14, -32
	.cfi_offset %r15, -24
	.cfi_offset %rbp, -16
	movq	%rcx, 32(%rsp)                  # 8-byte Spill
	movq	%rdx, %rbp
	movq	%rsi, %r14
	movq	%rdi, %rbx
	movq	8(%rdi), %rcx
	movq	%r8, %r13
	subq	%rdx, %r13
	leaq	16(%rdi), %r12
	movl	$15, %eax
	cmpq	%r12, (%rdi)
	je	.LBB18_2
# %bb.1:                                # %entry
	movq	16(%rbx), %rax
.LBB18_2:                               # %entry
	addq	%rcx, %r13
	js	.LBB18_23
# %bb.3:                                # %if.end.i
	cmpq	%rax, %r13
	jbe	.LBB18_6
# %bb.4:                                # %land.lhs.true.i
	addq	%rax, %rax
	cmpq	%rax, %r13
	jae	.LBB18_6
# %bb.5:                                # %if.then4.i
	movabsq	$9223372036854775807, %r13      # imm = 0x7FFFFFFFFFFFFFFF
	cmpq	%r13, %rax
	cmovbq	%rax, %r13
.LBB18_6:                               # %if.end11.i
	movq	%r13, %rdi
	incq	%rdi
	js	.LBB18_24
# %bb.7:                                # %_ZNSt7__cxx1112basic_stringIcSt11char_traitsIcESaIcEE9_M_createERmm.exit
	movq	%rcx, 16(%rsp)                  # 8-byte Spill
	movq	%r8, %r15
	callq	_Znwm@PLT
	movq	%r15, %rdx
	testq	%r14, %r14
	movq	%rax, (%rsp)                    # 8-byte Spill
	je	.LBB18_11
# %bb.8:                                # %if.then
	movq	(%rbx), %rsi
	cmpq	$1, %r14
	jne	.LBB18_10
# %bb.9:                                # %if.then.i18
	movzbl	(%rsi), %ecx
	movb	%cl, (%rax)
	jmp	.LBB18_11
.LBB18_10:                              # %if.end.i.i
	movq	%rax, %rdi
	movq	%r14, %rdx
	callq	memcpy@PLT
	movq	(%rsp), %rax                    # 8-byte Reload
	movq	%r15, %rdx
.LBB18_11:                              # %if.end
	movq	%r12, 24(%rsp)                  # 8-byte Spill
	movq	%rbp, 8(%rsp)                   # 8-byte Spill
	addq	%r14, %rbp
	movq	32(%rsp), %rsi                  # 8-byte Reload
	testq	%rsi, %rsi
	sete	%dil
	testq	%rdx, %rdx
	sete	%cl
	orb	%dil, %cl
	jne	.LBB18_15
# %bb.12:                               # %if.then10
	leaq	(%rax,%r14), %rdi
	cmpq	$1, %rdx
	jne	.LBB18_14
# %bb.13:                               # %if.then.i20
	movzbl	(%rsi), %ecx
	movb	%cl, (%rdi)
.LBB18_15:                              # %if.end11
	movq	(%rbx), %r12
	movq	16(%rsp), %rcx                  # 8-byte Reload
	cmpq	%rbp, %rcx
	je	.LBB18_20
.LBB18_16:                              # %if.then13
	subq	%rbp, %rcx
	je	.LBB18_20
# %bb.17:                               # %if.then13
	movq	%rax, %rdi
	addq	%r14, %rdi
	addq	%rdx, %rdi
	addq	%r12, %r14
	addq	8(%rsp), %r14                   # 8-byte Folded Reload
	cmpq	$1, %rcx
	jne	.LBB18_19
# %bb.18:                               # %if.then.i24
	movzbl	(%r14), %ecx
	movb	%cl, (%rdi)
	movq	24(%rsp), %rcx                  # 8-byte Reload
	cmpq	%rcx, %r12
	jne	.LBB18_21
	jmp	.LBB18_22
.LBB18_14:                              # %if.end.i.i21
	callq	memcpy@PLT
	movq	(%rsp), %rax                    # 8-byte Reload
	movq	%r15, %rdx
	movq	(%rbx), %r12
	movq	16(%rsp), %rcx                  # 8-byte Reload
	cmpq	%rbp, %rcx
	jne	.LBB18_16
.LBB18_20:                              # %if.end19
	movq	24(%rsp), %rcx                  # 8-byte Reload
	cmpq	%rcx, %r12
	je	.LBB18_22
.LBB18_21:                              # %if.then.i28
	movq	(%rcx), %rsi
	incq	%rsi
	movq	%r12, %rdi
	callq	_ZdlPvm@PLT
	movq	(%rsp), %rax                    # 8-byte Reload
.LBB18_22:                              # %_ZNSt7__cxx1112basic_stringIcSt11char_traitsIcESaIcEE10_M_disposeEv.exit
	movq	%rax, (%rbx)
	movq	%r13, 16(%rbx)
	addq	$40, %rsp
	.cfi_def_cfa_offset 56
	popq	%rbx
	.cfi_def_cfa_offset 48
	popq	%r12
	.cfi_def_cfa_offset 40
	popq	%r13
	.cfi_def_cfa_offset 32
	popq	%r14
	.cfi_def_cfa_offset 24
	popq	%r15
	.cfi_def_cfa_offset 16
	popq	%rbp
	.cfi_def_cfa_offset 8
	retq
.LBB18_19:                              # %if.end.i.i25
	.cfi_def_cfa_offset 96
	movq	%r14, %rsi
	movq	%rcx, %rdx
	callq	memcpy@PLT
	movq	(%rsp), %rax                    # 8-byte Reload
	movq	24(%rsp), %rcx                  # 8-byte Reload
	cmpq	%rcx, %r12
	jne	.LBB18_21
	jmp	.LBB18_22
.LBB18_24:                              # %if.end.i.i.i.i
	callq	_ZSt17__throw_bad_allocv@PLT
.LBB18_23:                              # %if.then.i
	leaq	.L.str.10(%rip), %rdi
	callq	_ZSt20__throw_length_errorPKc@PLT
.Lfunc_end18:
	.size	_ZNSt7__cxx1112basic_stringIcSt11char_traitsIcESaIcEE9_M_mutateEmmPKcm, .Lfunc_end18-_ZNSt7__cxx1112basic_stringIcSt11char_traitsIcESaIcEE9_M_mutateEmmPKcm
	.cfi_endproc
                                        # -- End function
	.section	.text._ZN8pybind116detail12error_stringB5cxx11Ev,"axG",@progbits,_ZN8pybind116detail12error_stringB5cxx11Ev,comdat
	.hidden	_ZN8pybind116detail12error_stringB5cxx11Ev # -- Begin function _ZN8pybind116detail12error_stringB5cxx11Ev
	.weak	_ZN8pybind116detail12error_stringB5cxx11Ev
	.p2align	4, 0x90
	.type	_ZN8pybind116detail12error_stringB5cxx11Ev,@function
_ZN8pybind116detail12error_stringB5cxx11Ev: # @_ZN8pybind116detail12error_stringB5cxx11Ev
.Lfunc_begin9:
	.cfi_startproc
	.cfi_personality 155, DW.ref.__gxx_personality_v0
	.cfi_lsda 27, .Lexception9
# %bb.0:                                # %entry
	pushq	%r15
	.cfi_def_cfa_offset 16
	pushq	%r14
	.cfi_def_cfa_offset 24
	pushq	%r12
	.cfi_def_cfa_offset 32
	pushq	%rbx
	.cfi_def_cfa_offset 40
	subq	$72, %rsp
	.cfi_def_cfa_offset 112
	.cfi_offset %rbx, -40
	.cfi_offset %r12, -32
	.cfi_offset %r14, -24
	.cfi_offset %r15, -16
	movq	%rdi, %rbx
	leaq	.L.str.21(%rip), %rsi
	leaq	8(%rsp), %r14
	movq	%r14, %rdi
	callq	_ZN8pybind116detail25error_fetch_and_normalizeC2EPKc
.Ltmp392:
	movq	%r14, %rdi
	callq	_ZNK8pybind116detail25error_fetch_and_normalize12error_stringB5cxx11Ev
.Ltmp393:
# %bb.1:                                # %invoke.cont
	leaq	16(%rbx), %r12
	movq	%r12, (%rbx)
	movq	(%rax), %r15
	movq	8(%rax), %r14
	cmpq	$16, %r14
	jb	.LBB19_10
# %bb.2:                                # %if.then4.i.i.i.i
	testq	%r14, %r14
	js	.LBB19_3
# %bb.5:                                # %if.end11.i.i.i.i.i
	movq	%r14, %rdi
	incq	%rdi
	js	.LBB19_6
# %bb.8:                                # %_ZNSt7__cxx1112basic_stringIcSt11char_traitsIcESaIcEE9_M_createERmm.exit.i.i.i.i
.Ltmp394:
	callq	_Znwm@PLT
.Ltmp395:
# %bb.9:                                # %call5.i.i.i.i.i.i.i6.i.noexc
	movq	%rax, %r12
	movq	%rax, (%rbx)
	movq	%r14, 16(%rbx)
.LBB19_10:                              # %if.end6.i.i.i.i
	testq	%r14, %r14
	je	.LBB19_14
# %bb.11:                               # %if.end6.i.i.i.i
	cmpq	$1, %r14
	jne	.LBB19_13
# %bb.12:                               # %if.then.i.i.i.i.i.i
	movzbl	(%r15), %eax
	movb	%al, (%r12)
	jmp	.LBB19_14
.LBB19_13:                              # %if.end.i.i.i.i.i.i.i
	movq	%r12, %rdi
	movq	%r15, %rsi
	movq	%r14, %rdx
	callq	memcpy@PLT
.LBB19_14:                              # %invoke.cont1
	movq	%r14, 8(%rbx)
	movb	$0, (%r12,%r14)
	movq	32(%rsp), %rdi
	leaq	48(%rsp), %rax
	cmpq	%rax, %rdi
	je	.LBB19_16
# %bb.15:                               # %if.then.i.i.i
	movq	48(%rsp), %rsi
	incq	%rsi
	callq	_ZdlPvm@PLT
.LBB19_16:                              # %_ZNSt7__cxx1112basic_stringIcSt11char_traitsIcESaIcEED2Ev.exit.i
	leaq	24(%rsp), %rdi
.Ltmp396:
	callq	_ZNKR8pybind116handle7dec_refEv
.Ltmp397:
# %bb.17:                               # %_ZN8pybind116objectD2Ev.exit.i
	leaq	16(%rsp), %rdi
.Ltmp399:
	callq	_ZNKR8pybind116handle7dec_refEv
.Ltmp400:
# %bb.18:                               # %_ZN8pybind116objectD2Ev.exit3.i
.Ltmp402:
	leaq	8(%rsp), %rdi
	callq	_ZNKR8pybind116handle7dec_refEv
.Ltmp403:
# %bb.19:                               # %_ZN8pybind116detail25error_fetch_and_normalizeD2Ev.exit
	movq	%rbx, %rax
	addq	$72, %rsp
	.cfi_def_cfa_offset 40
	popq	%rbx
	.cfi_def_cfa_offset 32
	popq	%r12
	.cfi_def_cfa_offset 24
	popq	%r14
	.cfi_def_cfa_offset 16
	popq	%r15
	.cfi_def_cfa_offset 8
	retq
.LBB19_6:                               # %if.end.i.i.i.i.i.i.i.i
	.cfi_def_cfa_offset 112
.Ltmp405:
	callq	_ZSt17__throw_bad_allocv@PLT
.Ltmp406:
# %bb.7:                                # %.noexc1
.LBB19_3:                               # %if.then.i.i.i.i.i
.Ltmp407:
	leaq	.L.str.10(%rip), %rdi
	callq	_ZSt20__throw_length_errorPKc@PLT
.Ltmp408:
# %bb.4:                                # %.noexc
.LBB19_23:                              # %terminate.lpad.i5.i
.Ltmp404:
	movq	%rax, %rdi
	callq	__clang_call_terminate
.LBB19_22:                              # %terminate.lpad.i2.i
.Ltmp401:
	movq	%rax, %rdi
	callq	__clang_call_terminate
.LBB19_21:                              # %terminate.lpad.i.i
.Ltmp398:
	movq	%rax, %rdi
	callq	__clang_call_terminate
.LBB19_20:                              # %lpad
.Ltmp409:
	movq	%rax, %rbx
	leaq	8(%rsp), %rdi
	callq	_ZN8pybind116detail25error_fetch_and_normalizeD2Ev
	movq	%rbx, %rdi
	callq	_Unwind_Resume@PLT
.Lfunc_end19:
	.size	_ZN8pybind116detail12error_stringB5cxx11Ev, .Lfunc_end19-_ZN8pybind116detail12error_stringB5cxx11Ev
	.cfi_endproc
	.section	.gcc_except_table._ZN8pybind116detail12error_stringB5cxx11Ev,"aG",@progbits,_ZN8pybind116detail12error_stringB5cxx11Ev,comdat
	.p2align	2, 0x0
GCC_except_table19:
.Lexception9:
	.byte	255                             # @LPStart Encoding = omit
	.byte	155                             # @TType Encoding = indirect pcrel sdata4
	.uleb128 .Lttbase6-.Lttbaseref6
.Lttbaseref6:
	.byte	1                               # Call site Encoding = uleb128
	.uleb128 .Lcst_end9-.Lcst_begin9
.Lcst_begin9:
	.uleb128 .Lfunc_begin9-.Lfunc_begin9    # >> Call Site 1 <<
	.uleb128 .Ltmp392-.Lfunc_begin9         #   Call between .Lfunc_begin9 and .Ltmp392
	.byte	0                               #     has no landing pad
	.byte	0                               #   On action: cleanup
	.uleb128 .Ltmp392-.Lfunc_begin9         # >> Call Site 2 <<
	.uleb128 .Ltmp395-.Ltmp392              #   Call between .Ltmp392 and .Ltmp395
	.uleb128 .Ltmp409-.Lfunc_begin9         #     jumps to .Ltmp409
	.byte	0                               #   On action: cleanup
	.uleb128 .Ltmp395-.Lfunc_begin9         # >> Call Site 3 <<
	.uleb128 .Ltmp396-.Ltmp395              #   Call between .Ltmp395 and .Ltmp396
	.byte	0                               #     has no landing pad
	.byte	0                               #   On action: cleanup
	.uleb128 .Ltmp396-.Lfunc_begin9         # >> Call Site 4 <<
	.uleb128 .Ltmp397-.Ltmp396              #   Call between .Ltmp396 and .Ltmp397
	.uleb128 .Ltmp398-.Lfunc_begin9         #     jumps to .Ltmp398
	.byte	1                               #   On action: 1
	.uleb128 .Ltmp399-.Lfunc_begin9         # >> Call Site 5 <<
	.uleb128 .Ltmp400-.Ltmp399              #   Call between .Ltmp399 and .Ltmp400
	.uleb128 .Ltmp401-.Lfunc_begin9         #     jumps to .Ltmp401
	.byte	1                               #   On action: 1
	.uleb128 .Ltmp402-.Lfunc_begin9         # >> Call Site 6 <<
	.uleb128 .Ltmp403-.Ltmp402              #   Call between .Ltmp402 and .Ltmp403
	.uleb128 .Ltmp404-.Lfunc_begin9         #     jumps to .Ltmp404
	.byte	1                               #   On action: 1
	.uleb128 .Ltmp405-.Lfunc_begin9         # >> Call Site 7 <<
	.uleb128 .Ltmp408-.Ltmp405              #   Call between .Ltmp405 and .Ltmp408
	.uleb128 .Ltmp409-.Lfunc_begin9         #     jumps to .Ltmp409
	.byte	0                               #   On action: cleanup
	.uleb128 .Ltmp408-.Lfunc_begin9         # >> Call Site 8 <<
	.uleb128 .Lfunc_end19-.Ltmp408          #   Call between .Ltmp408 and .Lfunc_end19
	.byte	0                               #     has no landing pad
	.byte	0                               #   On action: cleanup
.Lcst_end9:
	.byte	1                               # >> Action Record 1 <<
                                        #   Catch TypeInfo 1
	.byte	0                               #   No further actions
	.p2align	2, 0x0
                                        # >> Catch TypeInfos <<
	.long	0                               # TypeInfo 1
.Lttbase6:
	.p2align	2, 0x0
                                        # -- End function
	.section	.text._ZNSt7__cxx1112basic_stringIcSt11char_traitsIcESaIcEEpLEPKc,"axG",@progbits,_ZNSt7__cxx1112basic_stringIcSt11char_traitsIcESaIcEEpLEPKc,comdat
	.weak	_ZNSt7__cxx1112basic_stringIcSt11char_traitsIcESaIcEEpLEPKc # -- Begin function _ZNSt7__cxx1112basic_stringIcSt11char_traitsIcESaIcEEpLEPKc
	.p2align	4, 0x90
	.type	_ZNSt7__cxx1112basic_stringIcSt11char_traitsIcESaIcEEpLEPKc,@function
_ZNSt7__cxx1112basic_stringIcSt11char_traitsIcESaIcEEpLEPKc: # @_ZNSt7__cxx1112basic_stringIcSt11char_traitsIcESaIcEEpLEPKc
	.cfi_startproc
# %bb.0:                                # %entry
	pushq	%r15
	.cfi_def_cfa_offset 16
	pushq	%r14
	.cfi_def_cfa_offset 24
	pushq	%rbx
	.cfi_def_cfa_offset 32
	.cfi_offset %rbx, -32
	.cfi_offset %r14, -24
	.cfi_offset %r15, -16
	movq	%rsi, %r14
	movq	%rdi, %rbx
	movq	%rsi, %rdi
	callq	strlen@PLT
	movq	8(%rbx), %rsi
	movabsq	$9223372036854775807, %rcx      # imm = 0x7FFFFFFFFFFFFFFF
	xorq	%rsi, %rcx
	cmpq	%rax, %rcx
	jb	.LBB20_10
# %bb.1:                                # %_ZNKSt7__cxx1112basic_stringIcSt11char_traitsIcESaIcEE15_M_check_lengthEmmPKc.exit.i
	leaq	(%rsi,%rax), %r15
	movq	(%rbx), %rdi
	leaq	16(%rbx), %rdx
	movl	$15, %ecx
	cmpq	%rdx, %rdi
	je	.LBB20_3
# %bb.2:                                # %_ZNKSt7__cxx1112basic_stringIcSt11char_traitsIcESaIcEE15_M_check_lengthEmmPKc.exit.i
	movq	16(%rbx), %rcx
.LBB20_3:                               # %_ZNKSt7__cxx1112basic_stringIcSt11char_traitsIcESaIcEE15_M_check_lengthEmmPKc.exit.i
	cmpq	%rcx, %r15
	jbe	.LBB20_4
# %bb.8:                                # %if.else.i.i
	movq	%rbx, %rdi
	xorl	%edx, %edx
	movq	%r14, %rcx
	movq	%rax, %r8
	callq	_ZNSt7__cxx1112basic_stringIcSt11char_traitsIcESaIcEE9_M_mutateEmmPKcm@PLT
	jmp	.LBB20_9
.LBB20_4:                               # %if.then.i4.i
	testq	%rax, %rax
	je	.LBB20_9
# %bb.5:                                # %if.then3.i.i
	addq	%rsi, %rdi
	cmpq	$1, %rax
	jne	.LBB20_7
# %bb.6:                                # %if.then.i.i.i
	movzbl	(%r14), %eax
	movb	%al, (%rdi)
	jmp	.LBB20_9
.LBB20_7:                               # %if.end.i.i.i.i
	movq	%r14, %rsi
	movq	%rax, %rdx
	callq	memcpy@PLT
.LBB20_9:                               # %_ZNSt7__cxx1112basic_stringIcSt11char_traitsIcESaIcEE6appendEPKc.exit
	movq	%r15, 8(%rbx)
	movq	(%rbx), %rax
	movb	$0, (%rax,%r15)
	movq	%rbx, %rax
	popq	%rbx
	.cfi_def_cfa_offset 24
	popq	%r14
	.cfi_def_cfa_offset 16
	popq	%r15
	.cfi_def_cfa_offset 8
	retq
.LBB20_10:                              # %if.then.i.i
	.cfi_def_cfa_offset 32
	leaq	.L.str.30(%rip), %rdi
	callq	_ZSt20__throw_length_errorPKc@PLT
.Lfunc_end20:
	.size	_ZNSt7__cxx1112basic_stringIcSt11char_traitsIcESaIcEEpLEPKc, .Lfunc_end20-_ZNSt7__cxx1112basic_stringIcSt11char_traitsIcESaIcEEpLEPKc
	.cfi_endproc
                                        # -- End function
	.section	.text._ZStplIcSt11char_traitsIcESaIcEENSt7__cxx1112basic_stringIT_T0_T1_EEPKS5_RKS8_,"axG",@progbits,_ZStplIcSt11char_traitsIcESaIcEENSt7__cxx1112basic_stringIT_T0_T1_EEPKS5_RKS8_,comdat
	.weak	_ZStplIcSt11char_traitsIcESaIcEENSt7__cxx1112basic_stringIT_T0_T1_EEPKS5_RKS8_ # -- Begin function _ZStplIcSt11char_traitsIcESaIcEENSt7__cxx1112basic_stringIT_T0_T1_EEPKS5_RKS8_
	.p2align	4, 0x90
	.type	_ZStplIcSt11char_traitsIcESaIcEENSt7__cxx1112basic_stringIT_T0_T1_EEPKS5_RKS8_,@function
_ZStplIcSt11char_traitsIcESaIcEENSt7__cxx1112basic_stringIT_T0_T1_EEPKS5_RKS8_: # @_ZStplIcSt11char_traitsIcESaIcEENSt7__cxx1112basic_stringIT_T0_T1_EEPKS5_RKS8_
.Lfunc_begin10:
	.cfi_startproc
	.cfi_personality 155, DW.ref.__gxx_personality_v0
	.cfi_lsda 27, .Lexception10
# %bb.0:                                # %invoke.cont
	pushq	%rbp
	.cfi_def_cfa_offset 16
	pushq	%r15
	.cfi_def_cfa_offset 24
	pushq	%r14
	.cfi_def_cfa_offset 32
	pushq	%r13
	.cfi_def_cfa_offset 40
	pushq	%r12
	.cfi_def_cfa_offset 48
	pushq	%rbx
	.cfi_def_cfa_offset 56
	pushq	%rax
	.cfi_def_cfa_offset 64
	.cfi_offset %rbx, -56
	.cfi_offset %r12, -48
	.cfi_offset %r13, -40
	.cfi_offset %r14, -32
	.cfi_offset %r15, -24
	.cfi_offset %rbp, -16
	movq	%rdx, %r14
	movq	%rsi, %r15
	movq	%rdi, %rbx
	movq	%rsi, %rdi
	callq	strlen@PLT
	movq	%rax, %r12
	leaq	16(%rbx), %r13
	movq	%r13, (%rbx)
	movq	$0, 8(%rbx)
	movb	$0, 16(%rbx)
	movq	8(%r14), %rsi
	addq	%rax, %rsi
.Ltmp410:
	movq	%rbx, %rdi
	callq	_ZNSt7__cxx1112basic_stringIcSt11char_traitsIcESaIcEE7reserveEm@PLT
.Ltmp411:
# %bb.1:                                # %invoke.cont4
	movq	8(%rbx), %rsi
	movabsq	$9223372036854775807, %rax      # imm = 0x7FFFFFFFFFFFFFFF
	xorq	%rsi, %rax
	cmpq	%r12, %rax
	jb	.LBB21_2
# %bb.4:                                # %_ZNKSt7__cxx1112basic_stringIcSt11char_traitsIcESaIcEE15_M_check_lengthEmmPKc.exit.i
	leaq	(%rsi,%r12), %rbp
	movq	(%rbx), %rdi
	movl	$15, %eax
	cmpq	%r13, %rdi
	je	.LBB21_6
# %bb.5:                                # %_ZNKSt7__cxx1112basic_stringIcSt11char_traitsIcESaIcEE15_M_check_lengthEmmPKc.exit.i
	movq	16(%rbx), %rax
.LBB21_6:                               # %_ZNKSt7__cxx1112basic_stringIcSt11char_traitsIcESaIcEE15_M_check_lengthEmmPKc.exit.i
	cmpq	%rax, %rbp
	jbe	.LBB21_7
# %bb.11:                               # %if.else.i.i
.Ltmp412:
	movq	%rbx, %rdi
	xorl	%edx, %edx
	movq	%r15, %rcx
	movq	%r12, %r8
	callq	_ZNSt7__cxx1112basic_stringIcSt11char_traitsIcESaIcEE9_M_mutateEmmPKcm@PLT
.Ltmp413:
	jmp	.LBB21_12
.LBB21_7:                               # %if.then.i3.i
	testq	%r12, %r12
	je	.LBB21_12
# %bb.8:                                # %if.then3.i.i
	addq	%rsi, %rdi
	cmpq	$1, %r12
	jne	.LBB21_10
# %bb.9:                                # %if.then.i.i.i
	movzbl	(%r15), %eax
	movb	%al, (%rdi)
	jmp	.LBB21_12
.LBB21_10:                              # %if.end.i.i.i.i
	movq	%r15, %rsi
	movq	%r12, %rdx
	callq	memcpy@PLT
.LBB21_12:                              # %invoke.cont5
	movq	%rbp, 8(%rbx)
	movq	(%rbx), %rax
	movb	$0, (%rax,%rbp)
	movq	8(%r14), %r8
	movq	(%rbx), %rdi
	movq	8(%rbx), %rsi
	leaq	(%rsi,%r8), %r15
	movl	$15, %eax
	cmpq	%r13, %rdi
	je	.LBB21_14
# %bb.13:                               # %invoke.cont5
	movq	16(%rbx), %rax
.LBB21_14:                              # %invoke.cont5
	movq	(%r14), %rcx
	cmpq	%rax, %r15
	jbe	.LBB21_15
# %bb.18:                               # %if.else.i.i21
.Ltmp414:
	movq	%rbx, %rdi
	xorl	%edx, %edx
	callq	_ZNSt7__cxx1112basic_stringIcSt11char_traitsIcESaIcEE9_M_mutateEmmPKcm@PLT
.Ltmp415:
	jmp	.LBB21_23
.LBB21_15:                              # %if.then.i.i13
	testq	%r8, %r8
	je	.LBB21_23
# %bb.16:                               # %if.then3.i.i15
	addq	%rsi, %rdi
	cmpq	$1, %r8
	jne	.LBB21_22
# %bb.17:                               # %if.then.i.i.i20
	movzbl	(%rcx), %eax
	movb	%al, (%rdi)
	jmp	.LBB21_23
.LBB21_22:                              # %if.end.i.i.i.i18
	movq	%rcx, %rsi
	movq	%r8, %rdx
	callq	memcpy@PLT
.LBB21_23:                              # %nrvo.skipdtor
	movq	%r15, 8(%rbx)
	movq	(%rbx), %rax
	movb	$0, (%rax,%r15)
	movq	%rbx, %rax
	addq	$8, %rsp
	.cfi_def_cfa_offset 56
	popq	%rbx
	.cfi_def_cfa_offset 48
	popq	%r12
	.cfi_def_cfa_offset 40
	popq	%r13
	.cfi_def_cfa_offset 32
	popq	%r14
	.cfi_def_cfa_offset 24
	popq	%r15
	.cfi_def_cfa_offset 16
	popq	%rbp
	.cfi_def_cfa_offset 8
	retq
.LBB21_2:                               # %if.then.i.i
	.cfi_def_cfa_offset 64
.Ltmp416:
	leaq	.L.str.30(%rip), %rdi
	callq	_ZSt20__throw_length_errorPKc@PLT
.Ltmp417:
# %bb.3:                                # %.noexc
.LBB21_19:                              # %lpad3
.Ltmp418:
	movq	%rax, %r14
	movq	(%rbx), %rdi
	cmpq	%r13, %rdi
	je	.LBB21_21
# %bb.20:                               # %if.then.i.i23
	movq	(%r13), %rsi
	incq	%rsi
	callq	_ZdlPvm@PLT
.LBB21_21:                              # %ehcleanup
	movq	%r14, %rdi
	callq	_Unwind_Resume@PLT
.Lfunc_end21:
	.size	_ZStplIcSt11char_traitsIcESaIcEENSt7__cxx1112basic_stringIT_T0_T1_EEPKS5_RKS8_, .Lfunc_end21-_ZStplIcSt11char_traitsIcESaIcEENSt7__cxx1112basic_stringIT_T0_T1_EEPKS5_RKS8_
	.cfi_endproc
	.section	.gcc_except_table._ZStplIcSt11char_traitsIcESaIcEENSt7__cxx1112basic_stringIT_T0_T1_EEPKS5_RKS8_,"aG",@progbits,_ZStplIcSt11char_traitsIcESaIcEENSt7__cxx1112basic_stringIT_T0_T1_EEPKS5_RKS8_,comdat
	.p2align	2, 0x0
GCC_except_table21:
.Lexception10:
	.byte	255                             # @LPStart Encoding = omit
	.byte	255                             # @TType Encoding = omit
	.byte	1                               # Call site Encoding = uleb128
	.uleb128 .Lcst_end10-.Lcst_begin10
.Lcst_begin10:
	.uleb128 .Ltmp410-.Lfunc_begin10        # >> Call Site 1 <<
	.uleb128 .Ltmp413-.Ltmp410              #   Call between .Ltmp410 and .Ltmp413
	.uleb128 .Ltmp418-.Lfunc_begin10        #     jumps to .Ltmp418
	.byte	0                               #   On action: cleanup
	.uleb128 .Ltmp413-.Lfunc_begin10        # >> Call Site 2 <<
	.uleb128 .Ltmp414-.Ltmp413              #   Call between .Ltmp413 and .Ltmp414
	.byte	0                               #     has no landing pad
	.byte	0                               #   On action: cleanup
	.uleb128 .Ltmp414-.Lfunc_begin10        # >> Call Site 3 <<
	.uleb128 .Ltmp415-.Ltmp414              #   Call between .Ltmp414 and .Ltmp415
	.uleb128 .Ltmp418-.Lfunc_begin10        #     jumps to .Ltmp418
	.byte	0                               #   On action: cleanup
	.uleb128 .Ltmp415-.Lfunc_begin10        # >> Call Site 4 <<
	.uleb128 .Ltmp416-.Ltmp415              #   Call between .Ltmp415 and .Ltmp416
	.byte	0                               #     has no landing pad
	.byte	0                               #   On action: cleanup
	.uleb128 .Ltmp416-.Lfunc_begin10        # >> Call Site 5 <<
	.uleb128 .Ltmp417-.Ltmp416              #   Call between .Ltmp416 and .Ltmp417
	.uleb128 .Ltmp418-.Lfunc_begin10        #     jumps to .Ltmp418
	.byte	0                               #   On action: cleanup
	.uleb128 .Ltmp417-.Lfunc_begin10        # >> Call Site 6 <<
	.uleb128 .Lfunc_end21-.Ltmp417          #   Call between .Ltmp417 and .Lfunc_end21
	.byte	0                               #     has no landing pad
	.byte	0                               #   On action: cleanup
.Lcst_end10:
	.p2align	2, 0x0
                                        # -- End function
	.section	.text._ZN8pybind116detail25error_fetch_and_normalizeC2EPKc,"axG",@progbits,_ZN8pybind116detail25error_fetch_and_normalizeC2EPKc,comdat
	.hidden	_ZN8pybind116detail25error_fetch_and_normalizeC2EPKc # -- Begin function _ZN8pybind116detail25error_fetch_and_normalizeC2EPKc
	.weak	_ZN8pybind116detail25error_fetch_and_normalizeC2EPKc
	.p2align	4, 0x90
	.type	_ZN8pybind116detail25error_fetch_and_normalizeC2EPKc,@function
_ZN8pybind116detail25error_fetch_and_normalizeC2EPKc: # @_ZN8pybind116detail25error_fetch_and_normalizeC2EPKc
.Lfunc_begin11:
	.cfi_startproc
	.cfi_personality 155, DW.ref.__gxx_personality_v0
	.cfi_lsda 27, .Lexception11
# %bb.0:                                # %entry
	pushq	%rbp
	.cfi_def_cfa_offset 16
	pushq	%r15
	.cfi_def_cfa_offset 24
	pushq	%r14
	.cfi_def_cfa_offset 32
	pushq	%r13
	.cfi_def_cfa_offset 40
	pushq	%r12
	.cfi_def_cfa_offset 48
	pushq	%rbx
	.cfi_def_cfa_offset 56
	subq	$136, %rsp
	.cfi_def_cfa_offset 192
	.cfi_offset %rbx, -56
	.cfi_offset %r12, -48
	.cfi_offset %r13, -40
	.cfi_offset %r14, -32
	.cfi_offset %r15, -24
	.cfi_offset %rbp, -16
	movq	%rsi, %r13
	movq	%rdi, %rbx
	leaq	8(%rdi), %r14
	leaq	16(%rdi), %r15
	leaq	24(%rdi), %rax
	movq	%rax, 112(%rsp)                 # 8-byte Spill
	leaq	40(%rdi), %rax
	xorps	%xmm0, %xmm0
	movups	%xmm0, (%rdi)
	movq	$0, 16(%rdi)
	movq	%rax, 120(%rsp)                 # 8-byte Spill
	movq	%rax, 24(%rdi)
	movq	$0, 32(%rdi)
	movb	$0, 40(%rdi)
	movw	$0, 56(%rdi)
.Ltmp419:
	movq	%r14, %rsi
	movq	%r15, %rdx
	movq	%r14, 128(%rsp)                 # 8-byte Spill
	callq	PyErr_Fetch@PLT
.Ltmp420:
# %bb.1:                                # %invoke.cont9
	movq	(%rbx), %rax
	testq	%rax, %rax
	je	.LBB22_29
# %bb.2:                                # %invoke.cont33
	movq	8(%rax), %rcx
	testb	$-128, 171(%rcx)
	cmoveq	%rcx, %rax
	movq	24(%rax), %rbp
	testq	%rbp, %rbp
	je	.LBB22_34
# %bb.3:                                # %if.end56
	movq	32(%rbx), %r12
	movq	%rbp, %rdi
	callq	strlen@PLT
.Ltmp422:
	movq	112(%rsp), %rdi                 # 8-byte Reload
	xorl	%esi, %esi
	movq	%r12, %rdx
	movq	%rbp, %rcx
	movq	%rax, %r8
	callq	_ZNSt7__cxx1112basic_stringIcSt11char_traitsIcESaIcEE10_M_replaceEmmPKcm@PLT
.Ltmp423:
# %bb.4:                                # %invoke.cont58
.Ltmp424:
	movq	%rbx, %rdi
	movq	%r14, %rsi
	movq	%r15, %rdx
	callq	PyErr_NormalizeException@PLT
.Ltmp425:
# %bb.5:                                # %invoke.cont69
	movq	(%rbx), %rax
	testq	%rax, %rax
	je	.LBB22_39
# %bb.6:                                # %invoke.cont100
	movq	8(%rax), %rcx
	testb	$-128, 171(%rcx)
	cmoveq	%rcx, %rax
	movq	24(%rax), %rbp
	testq	%rbp, %rbp
	je	.LBB22_44
# %bb.7:                                # %if.end124
	movq	32(%rbx), %r14
	movq	%rbp, %rdi
	callq	strlen@PLT
	movq	%rax, %r12
	cmpq	%r14, %rax
	movq	%r14, %rdx
	cmovbq	%rax, %rdx
	testq	%rdx, %rdx
	je	.LBB22_11
# %bb.8:                                # %invoke.cont6.i.i
	movq	112(%rsp), %rax                 # 8-byte Reload
	movq	(%rax), %rdi
	movq	%rbp, %rsi
	callq	bcmp@PLT
	cmpq	%r12, %r14
	jne	.LBB22_12
# %bb.9:                                # %invoke.cont6.i.i
	testl	%eax, %eax
	jne	.LBB22_12
.LBB22_10:                              # %if.end165
	addq	$136, %rsp
	.cfi_def_cfa_offset 56
	popq	%rbx
	.cfi_def_cfa_offset 48
	popq	%r12
	.cfi_def_cfa_offset 40
	popq	%r13
	.cfi_def_cfa_offset 32
	popq	%r14
	.cfi_def_cfa_offset 24
	popq	%r15
	.cfi_def_cfa_offset 16
	popq	%rbp
	.cfi_def_cfa_offset 8
	retq
.LBB22_11:                              # %_ZSteqIcSt11char_traitsIcESaIcEEbRKNSt7__cxx1112basic_stringIT_T0_T1_EEPKS5_.exit
	.cfi_def_cfa_offset 192
	cmpq	%r12, %r14
	je	.LBB22_10
.LBB22_12:                              # %if.then128
.Ltmp427:
	leaq	16(%rsp), %rdi
	leaq	80(%rsp), %rdx
	movq	%r13, %rsi
	callq	_ZNSt7__cxx1112basic_stringIcSt11char_traitsIcESaIcEEC2IS3_EEPKcRKS3_@PLT
.Ltmp428:
# %bb.13:                               # %invoke.cont132
.Ltmp430:
	leaq	.L.str.27(%rip), %rdx
	leaq	48(%rsp), %rdi
	leaq	16(%rsp), %rsi
	callq	_ZStplIcSt11char_traitsIcESaIcEENSt7__cxx1112basic_stringIT_T0_T1_EEOS8_PKS5_@PLT
.Ltmp431:
# %bb.14:                               # %invoke.cont134
	movq	16(%rsp), %rdi
	leaq	32(%rsp), %r12
	cmpq	%r12, %rdi
	je	.LBB22_16
# %bb.15:                               # %if.then.i.i91
	movq	32(%rsp), %rsi
	incq	%rsi
	callq	_ZdlPvm@PLT
.LBB22_16:                              # %_ZNSt7__cxx1112basic_stringIcSt11char_traitsIcESaIcEED2Ev.exit93
.Ltmp433:
	leaq	.L.str.28(%rip), %rsi
	leaq	48(%rsp), %rdi
	callq	_ZNSt7__cxx1112basic_stringIcSt11char_traitsIcESaIcEEpLEPKc@PLT
.Ltmp434:
# %bb.17:                               # %invoke.cont140
.Ltmp435:
	leaq	48(%rsp), %rdi
	movq	112(%rsp), %rsi                 # 8-byte Reload
	callq	_ZNSt7__cxx1112basic_stringIcSt11char_traitsIcESaIcEEpLERKS4_@PLT
.Ltmp436:
# %bb.18:                               # %invoke.cont143
.Ltmp437:
	leaq	.L.str.29(%rip), %rsi
	leaq	48(%rsp), %rdi
	callq	_ZNSt7__cxx1112basic_stringIcSt11char_traitsIcESaIcEEpLEPKc@PLT
.Ltmp438:
# %bb.19:                               # %invoke.cont145
.Ltmp439:
	leaq	48(%rsp), %rdi
	movq	%rbp, %rsi
	callq	_ZNSt7__cxx1112basic_stringIcSt11char_traitsIcESaIcEEpLEPKc@PLT
.Ltmp440:
# %bb.20:                               # %invoke.cont147
.Ltmp441:
	leaq	80(%rsp), %rdi
	movq	%rbx, %rsi
	callq	_ZNK8pybind116detail25error_fetch_and_normalize22format_value_and_traceB5cxx11Ev
.Ltmp442:
# %bb.21:                               # %invoke.cont152
.Ltmp444:
	leaq	.L.str.7(%rip), %rsi
	leaq	16(%rsp), %rdi
	leaq	80(%rsp), %rdx
	callq	_ZStplIcSt11char_traitsIcESaIcEENSt7__cxx1112basic_stringIT_T0_T1_EEPKS5_OS8_@PLT
.Ltmp445:
# %bb.22:                               # %invoke.cont154
.Ltmp447:
	leaq	48(%rsp), %rdi
	leaq	16(%rsp), %rsi
	callq	_ZNSt7__cxx1112basic_stringIcSt11char_traitsIcESaIcEEpLERKS4_@PLT
.Ltmp448:
# %bb.23:                               # %invoke.cont156
	movq	16(%rsp), %rdi
	cmpq	%r12, %rdi
	je	.LBB22_25
# %bb.24:                               # %if.then.i.i95
	movq	32(%rsp), %rsi
	incq	%rsi
	callq	_ZdlPvm@PLT
.LBB22_25:                              # %_ZNSt7__cxx1112basic_stringIcSt11char_traitsIcESaIcEED2Ev.exit97
	movq	80(%rsp), %rdi
	leaq	96(%rsp), %rax
	cmpq	%rax, %rdi
	je	.LBB22_27
# %bb.26:                               # %if.then.i.i99
	movq	96(%rsp), %rsi
	incq	%rsi
	callq	_ZdlPvm@PLT
.LBB22_27:                              # %_ZNSt7__cxx1112basic_stringIcSt11char_traitsIcESaIcEED2Ev.exit101
.Ltmp450:
	leaq	48(%rsp), %rdi
	callq	_ZN8pybind1113pybind11_failERKNSt7__cxx1112basic_stringIcSt11char_traitsIcESaIcEEE
.Ltmp451:
# %bb.28:                               # %invoke.cont162
.LBB22_29:                              # %if.then
.Ltmp489:
	leaq	80(%rsp), %rdi
	leaq	15(%rsp), %rdx
	movq	%r13, %rsi
	callq	_ZNSt7__cxx1112basic_stringIcSt11char_traitsIcESaIcEEC2IS3_EEPKcRKS3_@PLT
.Ltmp490:
# %bb.30:                               # %invoke.cont16
.Ltmp492:
	leaq	.L.str.22(%rip), %rsi
	leaq	16(%rsp), %rdi
	leaq	80(%rsp), %rdx
	callq	_ZStplIcSt11char_traitsIcESaIcEENSt7__cxx1112basic_stringIT_T0_T1_EEPKS5_OS8_@PLT
.Ltmp493:
# %bb.31:                               # %invoke.cont18
.Ltmp495:
	leaq	.L.str.23(%rip), %rdx
	leaq	48(%rsp), %rdi
	leaq	16(%rsp), %rsi
	callq	_ZStplIcSt11char_traitsIcESaIcEENSt7__cxx1112basic_stringIT_T0_T1_EEOS8_PKS5_@PLT
.Ltmp496:
# %bb.32:                               # %invoke.cont20
.Ltmp498:
	leaq	48(%rsp), %rdi
	callq	_ZN8pybind1113pybind11_failERKNSt7__cxx1112basic_stringIcSt11char_traitsIcESaIcEEE
.Ltmp499:
# %bb.33:                               # %invoke.cont22
.LBB22_34:                              # %if.then35
.Ltmp477:
	leaq	80(%rsp), %rdi
	leaq	15(%rsp), %rdx
	movq	%r13, %rsi
	callq	_ZNSt7__cxx1112basic_stringIcSt11char_traitsIcESaIcEEC2IS3_EEPKcRKS3_@PLT
.Ltmp478:
# %bb.35:                               # %invoke.cont41
.Ltmp480:
	leaq	.L.str.22(%rip), %rsi
	leaq	16(%rsp), %rdi
	leaq	80(%rsp), %rdx
	callq	_ZStplIcSt11char_traitsIcESaIcEENSt7__cxx1112basic_stringIT_T0_T1_EEPKS5_OS8_@PLT
.Ltmp481:
# %bb.36:                               # %invoke.cont43
.Ltmp483:
	leaq	.L.str.24(%rip), %rdx
	leaq	48(%rsp), %rdi
	leaq	16(%rsp), %rsi
	callq	_ZStplIcSt11char_traitsIcESaIcEENSt7__cxx1112basic_stringIT_T0_T1_EEOS8_PKS5_@PLT
.Ltmp484:
# %bb.37:                               # %invoke.cont45
.Ltmp486:
	leaq	48(%rsp), %rdi
	callq	_ZN8pybind1113pybind11_failERKNSt7__cxx1112basic_stringIcSt11char_traitsIcESaIcEEE
.Ltmp487:
# %bb.38:                               # %invoke.cont47
.LBB22_39:                              # %if.then74
.Ltmp465:
	leaq	80(%rsp), %rdi
	leaq	15(%rsp), %rdx
	movq	%r13, %rsi
	callq	_ZNSt7__cxx1112basic_stringIcSt11char_traitsIcESaIcEEC2IS3_EEPKcRKS3_@PLT
.Ltmp466:
# %bb.40:                               # %invoke.cont80
.Ltmp468:
	leaq	.L.str.22(%rip), %rsi
	leaq	16(%rsp), %rdi
	leaq	80(%rsp), %rdx
	callq	_ZStplIcSt11char_traitsIcESaIcEENSt7__cxx1112basic_stringIT_T0_T1_EEPKS5_OS8_@PLT
.Ltmp469:
# %bb.41:                               # %invoke.cont82
.Ltmp471:
	leaq	.L.str.25(%rip), %rdx
	leaq	48(%rsp), %rdi
	leaq	16(%rsp), %rsi
	callq	_ZStplIcSt11char_traitsIcESaIcEENSt7__cxx1112basic_stringIT_T0_T1_EEOS8_PKS5_@PLT
.Ltmp472:
# %bb.42:                               # %invoke.cont84
.Ltmp474:
	leaq	48(%rsp), %rdi
	callq	_ZN8pybind1113pybind11_failERKNSt7__cxx1112basic_stringIcSt11char_traitsIcESaIcEEE
.Ltmp475:
# %bb.43:                               # %invoke.cont86
.LBB22_44:                              # %if.then103
.Ltmp453:
	leaq	80(%rsp), %rdi
	leaq	15(%rsp), %rdx
	movq	%r13, %rsi
	callq	_ZNSt7__cxx1112basic_stringIcSt11char_traitsIcESaIcEEC2IS3_EEPKcRKS3_@PLT
.Ltmp454:
# %bb.45:                               # %invoke.cont109
.Ltmp456:
	leaq	.L.str.22(%rip), %rsi
	leaq	16(%rsp), %rdi
	leaq	80(%rsp), %rdx
	callq	_ZStplIcSt11char_traitsIcESaIcEENSt7__cxx1112basic_stringIT_T0_T1_EEPKS5_OS8_@PLT
.Ltmp457:
# %bb.46:                               # %invoke.cont111
.Ltmp459:
	leaq	.L.str.26(%rip), %rdx
	leaq	48(%rsp), %rdi
	leaq	16(%rsp), %rsi
	callq	_ZStplIcSt11char_traitsIcESaIcEENSt7__cxx1112basic_stringIT_T0_T1_EEOS8_PKS5_@PLT
.Ltmp460:
# %bb.47:                               # %invoke.cont113
.Ltmp462:
	leaq	48(%rsp), %rdi
	callq	_ZN8pybind1113pybind11_failERKNSt7__cxx1112basic_stringIcSt11char_traitsIcESaIcEEE
.Ltmp463:
# %bb.48:                               # %invoke.cont115
.LBB22_49:                              # %lpad155
.Ltmp449:
	movq	%rax, %r13
	movq	16(%rsp), %rdi
	cmpq	%r12, %rdi
	jne	.LBB22_52
# %bb.50:                               # %ehcleanup159
	movq	80(%rsp), %rdi
	leaq	96(%rsp), %rax
	cmpq	%rax, %rdi
	jne	.LBB22_54
.LBB22_51:                              # %ehcleanup163
	movq	48(%rsp), %rdi
	leaq	64(%rsp), %rax
	cmpq	%rax, %rdi
	jne	.LBB22_74
	jmp	.LBB22_90
.LBB22_52:                              # %if.then.i.i107
	movq	32(%rsp), %rsi
	incq	%rsi
	callq	_ZdlPvm@PLT
	movq	80(%rsp), %rdi
	leaq	96(%rsp), %rax
	cmpq	%rax, %rdi
	je	.LBB22_51
	jmp	.LBB22_54
.LBB22_53:                              # %lpad153
.Ltmp446:
	movq	%rax, %r13
	movq	80(%rsp), %rdi
	leaq	96(%rsp), %rax
	cmpq	%rax, %rdi
	je	.LBB22_51
.LBB22_54:                              # %if.then.i.i111
	movq	96(%rsp), %rsi
	incq	%rsi
	callq	_ZdlPvm@PLT
	movq	48(%rsp), %rdi
	leaq	64(%rsp), %rax
	cmpq	%rax, %rdi
	jne	.LBB22_74
	jmp	.LBB22_90
.LBB22_55:                              # %lpad151
.Ltmp443:
	jmp	.LBB22_73
.LBB22_56:                              # %lpad114
.Ltmp464:
	jmp	.LBB22_63
.LBB22_57:                              # %lpad112
.Ltmp461:
	jmp	.LBB22_70
.LBB22_58:                              # %lpad85
.Ltmp476:
	jmp	.LBB22_63
.LBB22_59:                              # %lpad83
.Ltmp473:
	jmp	.LBB22_70
.LBB22_60:                              # %lpad46
.Ltmp488:
	jmp	.LBB22_63
.LBB22_61:                              # %lpad44
.Ltmp485:
	jmp	.LBB22_70
.LBB22_62:                              # %lpad21
.Ltmp500:
.LBB22_63:                              # %lpad21
	movq	%rax, %r13
	movq	48(%rsp), %rdi
	leaq	64(%rsp), %rax
	cmpq	%rax, %rdi
	jne	.LBB22_68
# %bb.64:                               # %ehcleanup
	movq	16(%rsp), %rdi
	leaq	32(%rsp), %rax
	cmpq	%rax, %rdi
	jne	.LBB22_71
.LBB22_65:                              # %ehcleanup23
	movq	80(%rsp), %rdi
	leaq	96(%rsp), %rax
	cmpq	%rax, %rdi
	je	.LBB22_90
	jmp	.LBB22_66
.LBB22_68:                              # %if.then.i.i
	movq	64(%rsp), %rsi
	incq	%rsi
	callq	_ZdlPvm@PLT
	movq	16(%rsp), %rdi
	leaq	32(%rsp), %rax
	cmpq	%rax, %rdi
	je	.LBB22_65
	jmp	.LBB22_71
.LBB22_69:                              # %lpad19
.Ltmp497:
.LBB22_70:                              # %lpad19
	movq	%rax, %r13
	movq	16(%rsp), %rdi
	leaq	32(%rsp), %rax
	cmpq	%rax, %rdi
	je	.LBB22_65
.LBB22_71:                              # %if.then.i.i35
	movq	32(%rsp), %rsi
	incq	%rsi
	callq	_ZdlPvm@PLT
	movq	80(%rsp), %rdi
	leaq	96(%rsp), %rax
	cmpq	%rax, %rdi
	jne	.LBB22_66
	jmp	.LBB22_90
.LBB22_72:                              # %lpad139
.Ltmp452:
.LBB22_73:                              # %lpad139
	movq	%rax, %r13
	movq	48(%rsp), %rdi
	leaq	64(%rsp), %rax
	cmpq	%rax, %rdi
	je	.LBB22_90
.LBB22_74:                              # %if.then.i.i115
	movq	64(%rsp), %rsi
	jmp	.LBB22_67
.LBB22_75:                              # %lpad133
.Ltmp432:
	movq	%rax, %r13
	movq	16(%rsp), %rdi
	leaq	32(%rsp), %rax
	cmpq	%rax, %rdi
	je	.LBB22_90
# %bb.76:                               # %if.then.i.i103
	movq	32(%rsp), %rsi
	jmp	.LBB22_67
.LBB22_77:                              # %lpad110
.Ltmp458:
	jmp	.LBB22_81
.LBB22_78:                              # %lpad81
.Ltmp470:
	jmp	.LBB22_81
.LBB22_79:                              # %lpad42
.Ltmp482:
	jmp	.LBB22_81
.LBB22_80:                              # %lpad17
.Ltmp494:
.LBB22_81:                              # %lpad17
	movq	%rax, %r13
	movq	80(%rsp), %rdi
	leaq	96(%rsp), %rax
	cmpq	%rax, %rdi
	je	.LBB22_90
.LBB22_66:                              # %if.then.i.i39
	movq	96(%rsp), %rsi
.LBB22_67:                              # %ehcleanup168
	incq	%rsi
	callq	_ZdlPvm@PLT
	jmp	.LBB22_90
.LBB22_82:                              # %lpad131
.Ltmp429:
	jmp	.LBB22_89
.LBB22_83:                              # %lpad108
.Ltmp455:
	jmp	.LBB22_89
.LBB22_84:                              # %lpad79
.Ltmp467:
	jmp	.LBB22_89
.LBB22_85:                              # %lpad40
.Ltmp479:
	jmp	.LBB22_89
.LBB22_86:                              # %lpad15
.Ltmp491:
	jmp	.LBB22_89
.LBB22_87:                              # %lpad
.Ltmp421:
	jmp	.LBB22_89
.LBB22_88:                              # %lpad30
.Ltmp426:
.LBB22_89:                              # %ehcleanup168
	movq	%rax, %r13
.LBB22_90:                              # %ehcleanup168
	movq	112(%rsp), %rax                 # 8-byte Reload
	movq	(%rax), %rdi
	cmpq	120(%rsp), %rdi                 # 8-byte Folded Reload
	je	.LBB22_92
# %bb.91:                               # %if.then.i.i119
	movq	120(%rsp), %rax                 # 8-byte Reload
	movq	(%rax), %rsi
	incq	%rsi
	callq	_ZdlPvm@PLT
.LBB22_92:                              # %_ZNSt7__cxx1112basic_stringIcSt11char_traitsIcESaIcEED2Ev.exit121
.Ltmp501:
	movq	%r15, %rdi
	callq	_ZNKR8pybind116handle7dec_refEv
.Ltmp502:
# %bb.93:                               # %_ZN8pybind116objectD2Ev.exit
.Ltmp504:
	movq	128(%rsp), %rdi                 # 8-byte Reload
	callq	_ZNKR8pybind116handle7dec_refEv
.Ltmp505:
# %bb.94:                               # %_ZN8pybind116objectD2Ev.exit124
.Ltmp507:
	movq	%rbx, %rdi
	callq	_ZNKR8pybind116handle7dec_refEv
.Ltmp508:
# %bb.95:                               # %_ZN8pybind116objectD2Ev.exit127
	movq	%r13, %rdi
	callq	_Unwind_Resume@PLT
.LBB22_96:                              # %terminate.lpad.i126
.Ltmp509:
	movq	%rax, %rdi
	callq	__clang_call_terminate
.LBB22_97:                              # %terminate.lpad.i123
.Ltmp506:
	movq	%rax, %rdi
	callq	__clang_call_terminate
.LBB22_98:                              # %terminate.lpad.i
.Ltmp503:
	movq	%rax, %rdi
	callq	__clang_call_terminate
.Lfunc_end22:
	.size	_ZN8pybind116detail25error_fetch_and_normalizeC2EPKc, .Lfunc_end22-_ZN8pybind116detail25error_fetch_and_normalizeC2EPKc
	.cfi_endproc
	.section	.gcc_except_table._ZN8pybind116detail25error_fetch_and_normalizeC2EPKc,"aG",@progbits,_ZN8pybind116detail25error_fetch_and_normalizeC2EPKc,comdat
	.p2align	2, 0x0
GCC_except_table22:
.Lexception11:
	.byte	255                             # @LPStart Encoding = omit
	.byte	155                             # @TType Encoding = indirect pcrel sdata4
	.uleb128 .Lttbase7-.Lttbaseref7
.Lttbaseref7:
	.byte	1                               # Call site Encoding = uleb128
	.uleb128 .Lcst_end11-.Lcst_begin11
.Lcst_begin11:
	.uleb128 .Ltmp419-.Lfunc_begin11        # >> Call Site 1 <<
	.uleb128 .Ltmp420-.Ltmp419              #   Call between .Ltmp419 and .Ltmp420
	.uleb128 .Ltmp421-.Lfunc_begin11        #     jumps to .Ltmp421
	.byte	0                               #   On action: cleanup
	.uleb128 .Ltmp422-.Lfunc_begin11        # >> Call Site 2 <<
	.uleb128 .Ltmp425-.Ltmp422              #   Call between .Ltmp422 and .Ltmp425
	.uleb128 .Ltmp426-.Lfunc_begin11        #     jumps to .Ltmp426
	.byte	0                               #   On action: cleanup
	.uleb128 .Ltmp427-.Lfunc_begin11        # >> Call Site 3 <<
	.uleb128 .Ltmp428-.Ltmp427              #   Call between .Ltmp427 and .Ltmp428
	.uleb128 .Ltmp429-.Lfunc_begin11        #     jumps to .Ltmp429
	.byte	0                               #   On action: cleanup
	.uleb128 .Ltmp430-.Lfunc_begin11        # >> Call Site 4 <<
	.uleb128 .Ltmp431-.Ltmp430              #   Call between .Ltmp430 and .Ltmp431
	.uleb128 .Ltmp432-.Lfunc_begin11        #     jumps to .Ltmp432
	.byte	0                               #   On action: cleanup
	.uleb128 .Ltmp433-.Lfunc_begin11        # >> Call Site 5 <<
	.uleb128 .Ltmp440-.Ltmp433              #   Call between .Ltmp433 and .Ltmp440
	.uleb128 .Ltmp452-.Lfunc_begin11        #     jumps to .Ltmp452
	.byte	0                               #   On action: cleanup
	.uleb128 .Ltmp441-.Lfunc_begin11        # >> Call Site 6 <<
	.uleb128 .Ltmp442-.Ltmp441              #   Call between .Ltmp441 and .Ltmp442
	.uleb128 .Ltmp443-.Lfunc_begin11        #     jumps to .Ltmp443
	.byte	0                               #   On action: cleanup
	.uleb128 .Ltmp444-.Lfunc_begin11        # >> Call Site 7 <<
	.uleb128 .Ltmp445-.Ltmp444              #   Call between .Ltmp444 and .Ltmp445
	.uleb128 .Ltmp446-.Lfunc_begin11        #     jumps to .Ltmp446
	.byte	0                               #   On action: cleanup
	.uleb128 .Ltmp447-.Lfunc_begin11        # >> Call Site 8 <<
	.uleb128 .Ltmp448-.Ltmp447              #   Call between .Ltmp447 and .Ltmp448
	.uleb128 .Ltmp449-.Lfunc_begin11        #     jumps to .Ltmp449
	.byte	0                               #   On action: cleanup
	.uleb128 .Ltmp450-.Lfunc_begin11        # >> Call Site 9 <<
	.uleb128 .Ltmp451-.Ltmp450              #   Call between .Ltmp450 and .Ltmp451
	.uleb128 .Ltmp452-.Lfunc_begin11        #     jumps to .Ltmp452
	.byte	0                               #   On action: cleanup
	.uleb128 .Ltmp489-.Lfunc_begin11        # >> Call Site 10 <<
	.uleb128 .Ltmp490-.Ltmp489              #   Call between .Ltmp489 and .Ltmp490
	.uleb128 .Ltmp491-.Lfunc_begin11        #     jumps to .Ltmp491
	.byte	0                               #   On action: cleanup
	.uleb128 .Ltmp492-.Lfunc_begin11        # >> Call Site 11 <<
	.uleb128 .Ltmp493-.Ltmp492              #   Call between .Ltmp492 and .Ltmp493
	.uleb128 .Ltmp494-.Lfunc_begin11        #     jumps to .Ltmp494
	.byte	0                               #   On action: cleanup
	.uleb128 .Ltmp495-.Lfunc_begin11        # >> Call Site 12 <<
	.uleb128 .Ltmp496-.Ltmp495              #   Call between .Ltmp495 and .Ltmp496
	.uleb128 .Ltmp497-.Lfunc_begin11        #     jumps to .Ltmp497
	.byte	0                               #   On action: cleanup
	.uleb128 .Ltmp498-.Lfunc_begin11        # >> Call Site 13 <<
	.uleb128 .Ltmp499-.Ltmp498              #   Call between .Ltmp498 and .Ltmp499
	.uleb128 .Ltmp500-.Lfunc_begin11        #     jumps to .Ltmp500
	.byte	0                               #   On action: cleanup
	.uleb128 .Ltmp477-.Lfunc_begin11        # >> Call Site 14 <<
	.uleb128 .Ltmp478-.Ltmp477              #   Call between .Ltmp477 and .Ltmp478
	.uleb128 .Ltmp479-.Lfunc_begin11        #     jumps to .Ltmp479
	.byte	0                               #   On action: cleanup
	.uleb128 .Ltmp480-.Lfunc_begin11        # >> Call Site 15 <<
	.uleb128 .Ltmp481-.Ltmp480              #   Call between .Ltmp480 and .Ltmp481
	.uleb128 .Ltmp482-.Lfunc_begin11        #     jumps to .Ltmp482
	.byte	0                               #   On action: cleanup
	.uleb128 .Ltmp483-.Lfunc_begin11        # >> Call Site 16 <<
	.uleb128 .Ltmp484-.Ltmp483              #   Call between .Ltmp483 and .Ltmp484
	.uleb128 .Ltmp485-.Lfunc_begin11        #     jumps to .Ltmp485
	.byte	0                               #   On action: cleanup
	.uleb128 .Ltmp486-.Lfunc_begin11        # >> Call Site 17 <<
	.uleb128 .Ltmp487-.Ltmp486              #   Call between .Ltmp486 and .Ltmp487
	.uleb128 .Ltmp488-.Lfunc_begin11        #     jumps to .Ltmp488
	.byte	0                               #   On action: cleanup
	.uleb128 .Ltmp465-.Lfunc_begin11        # >> Call Site 18 <<
	.uleb128 .Ltmp466-.Ltmp465              #   Call between .Ltmp465 and .Ltmp466
	.uleb128 .Ltmp467-.Lfunc_begin11        #     jumps to .Ltmp467
	.byte	0                               #   On action: cleanup
	.uleb128 .Ltmp468-.Lfunc_begin11        # >> Call Site 19 <<
	.uleb128 .Ltmp469-.Ltmp468              #   Call between .Ltmp468 and .Ltmp469
	.uleb128 .Ltmp470-.Lfunc_begin11        #     jumps to .Ltmp470
	.byte	0                               #   On action: cleanup
	.uleb128 .Ltmp471-.Lfunc_begin11        # >> Call Site 20 <<
	.uleb128 .Ltmp472-.Ltmp471              #   Call between .Ltmp471 and .Ltmp472
	.uleb128 .Ltmp473-.Lfunc_begin11        #     jumps to .Ltmp473
	.byte	0                               #   On action: cleanup
	.uleb128 .Ltmp474-.Lfunc_begin11        # >> Call Site 21 <<
	.uleb128 .Ltmp475-.Ltmp474              #   Call between .Ltmp474 and .Ltmp475
	.uleb128 .Ltmp476-.Lfunc_begin11        #     jumps to .Ltmp476
	.byte	0                               #   On action: cleanup
	.uleb128 .Ltmp453-.Lfunc_begin11        # >> Call Site 22 <<
	.uleb128 .Ltmp454-.Ltmp453              #   Call between .Ltmp453 and .Ltmp454
	.uleb128 .Ltmp455-.Lfunc_begin11        #     jumps to .Ltmp455
	.byte	0                               #   On action: cleanup
	.uleb128 .Ltmp456-.Lfunc_begin11        # >> Call Site 23 <<
	.uleb128 .Ltmp457-.Ltmp456              #   Call between .Ltmp456 and .Ltmp457
	.uleb128 .Ltmp458-.Lfunc_begin11        #     jumps to .Ltmp458
	.byte	0                               #   On action: cleanup
	.uleb128 .Ltmp459-.Lfunc_begin11        # >> Call Site 24 <<
	.uleb128 .Ltmp460-.Ltmp459              #   Call between .Ltmp459 and .Ltmp460
	.uleb128 .Ltmp461-.Lfunc_begin11        #     jumps to .Ltmp461
	.byte	0                               #   On action: cleanup
	.uleb128 .Ltmp462-.Lfunc_begin11        # >> Call Site 25 <<
	.uleb128 .Ltmp463-.Ltmp462              #   Call between .Ltmp462 and .Ltmp463
	.uleb128 .Ltmp464-.Lfunc_begin11        #     jumps to .Ltmp464
	.byte	0                               #   On action: cleanup
	.uleb128 .Ltmp501-.Lfunc_begin11        # >> Call Site 26 <<
	.uleb128 .Ltmp502-.Ltmp501              #   Call between .Ltmp501 and .Ltmp502
	.uleb128 .Ltmp503-.Lfunc_begin11        #     jumps to .Ltmp503
	.byte	1                               #   On action: 1
	.uleb128 .Ltmp504-.Lfunc_begin11        # >> Call Site 27 <<
	.uleb128 .Ltmp505-.Ltmp504              #   Call between .Ltmp504 and .Ltmp505
	.uleb128 .Ltmp506-.Lfunc_begin11        #     jumps to .Ltmp506
	.byte	1                               #   On action: 1
	.uleb128 .Ltmp507-.Lfunc_begin11        # >> Call Site 28 <<
	.uleb128 .Ltmp508-.Ltmp507              #   Call between .Ltmp507 and .Ltmp508
	.uleb128 .Ltmp509-.Lfunc_begin11        #     jumps to .Ltmp509
	.byte	1                               #   On action: 1
	.uleb128 .Ltmp508-.Lfunc_begin11        # >> Call Site 29 <<
	.uleb128 .Lfunc_end22-.Ltmp508          #   Call between .Ltmp508 and .Lfunc_end22
	.byte	0                               #     has no landing pad
	.byte	0                               #   On action: cleanup
.Lcst_end11:
	.byte	1                               # >> Action Record 1 <<
                                        #   Catch TypeInfo 1
	.byte	0                               #   No further actions
	.p2align	2, 0x0
                                        # >> Catch TypeInfos <<
	.long	0                               # TypeInfo 1
.Lttbase7:
	.p2align	2, 0x0
                                        # -- End function
	.section	.text._ZN8pybind116detail25error_fetch_and_normalizeD2Ev,"axG",@progbits,_ZN8pybind116detail25error_fetch_and_normalizeD2Ev,comdat
	.hidden	_ZN8pybind116detail25error_fetch_and_normalizeD2Ev # -- Begin function _ZN8pybind116detail25error_fetch_and_normalizeD2Ev
	.weak	_ZN8pybind116detail25error_fetch_and_normalizeD2Ev
	.p2align	4, 0x90
	.type	_ZN8pybind116detail25error_fetch_and_normalizeD2Ev,@function
_ZN8pybind116detail25error_fetch_and_normalizeD2Ev: # @_ZN8pybind116detail25error_fetch_and_normalizeD2Ev
.Lfunc_begin12:
	.cfi_startproc
	.cfi_personality 155, DW.ref.__gxx_personality_v0
	.cfi_lsda 27, .Lexception12
# %bb.0:                                # %entry
	pushq	%rbx
	.cfi_def_cfa_offset 16
	.cfi_offset %rbx, -16
	movq	%rdi, %rbx
	movq	24(%rdi), %rdi
	leaq	40(%rbx), %rax
	cmpq	%rax, %rdi
	je	.LBB23_2
# %bb.1:                                # %if.then.i.i
	movq	(%rax), %rsi
	incq	%rsi
	callq	_ZdlPvm@PLT
.LBB23_2:                               # %_ZNSt7__cxx1112basic_stringIcSt11char_traitsIcESaIcEED2Ev.exit
	leaq	16(%rbx), %rdi
.Ltmp510:
	callq	_ZNKR8pybind116handle7dec_refEv
.Ltmp511:
# %bb.3:                                # %_ZN8pybind116objectD2Ev.exit
	leaq	8(%rbx), %rdi
.Ltmp513:
	callq	_ZNKR8pybind116handle7dec_refEv
.Ltmp514:
# %bb.4:                                # %_ZN8pybind116objectD2Ev.exit3
.Ltmp516:
	movq	%rbx, %rdi
	callq	_ZNKR8pybind116handle7dec_refEv
.Ltmp517:
# %bb.5:                                # %_ZN8pybind116objectD2Ev.exit6
	popq	%rbx
	.cfi_def_cfa_offset 8
	retq
.LBB23_8:                               # %terminate.lpad.i5
	.cfi_def_cfa_offset 16
.Ltmp518:
	movq	%rax, %rdi
	callq	__clang_call_terminate
.LBB23_7:                               # %terminate.lpad.i2
.Ltmp515:
	movq	%rax, %rdi
	callq	__clang_call_terminate
.LBB23_6:                               # %terminate.lpad.i
.Ltmp512:
	movq	%rax, %rdi
	callq	__clang_call_terminate
.Lfunc_end23:
	.size	_ZN8pybind116detail25error_fetch_and_normalizeD2Ev, .Lfunc_end23-_ZN8pybind116detail25error_fetch_and_normalizeD2Ev
	.cfi_endproc
	.section	.gcc_except_table._ZN8pybind116detail25error_fetch_and_normalizeD2Ev,"aG",@progbits,_ZN8pybind116detail25error_fetch_and_normalizeD2Ev,comdat
	.p2align	2, 0x0
GCC_except_table23:
.Lexception12:
	.byte	255                             # @LPStart Encoding = omit
	.byte	155                             # @TType Encoding = indirect pcrel sdata4
	.uleb128 .Lttbase8-.Lttbaseref8
.Lttbaseref8:
	.byte	1                               # Call site Encoding = uleb128
	.uleb128 .Lcst_end12-.Lcst_begin12
.Lcst_begin12:
	.uleb128 .Ltmp510-.Lfunc_begin12        # >> Call Site 1 <<
	.uleb128 .Ltmp511-.Ltmp510              #   Call between .Ltmp510 and .Ltmp511
	.uleb128 .Ltmp512-.Lfunc_begin12        #     jumps to .Ltmp512
	.byte	1                               #   On action: 1
	.uleb128 .Ltmp513-.Lfunc_begin12        # >> Call Site 2 <<
	.uleb128 .Ltmp514-.Ltmp513              #   Call between .Ltmp513 and .Ltmp514
	.uleb128 .Ltmp515-.Lfunc_begin12        #     jumps to .Ltmp515
	.byte	1                               #   On action: 1
	.uleb128 .Ltmp516-.Lfunc_begin12        # >> Call Site 3 <<
	.uleb128 .Ltmp517-.Ltmp516              #   Call between .Ltmp516 and .Ltmp517
	.uleb128 .Ltmp518-.Lfunc_begin12        #     jumps to .Ltmp518
	.byte	1                               #   On action: 1
.Lcst_end12:
	.byte	1                               # >> Action Record 1 <<
                                        #   Catch TypeInfo 1
	.byte	0                               #   No further actions
	.p2align	2, 0x0
                                        # >> Catch TypeInfos <<
	.long	0                               # TypeInfo 1
.Lttbase8:
	.p2align	2, 0x0
                                        # -- End function
	.section	.text._ZN8pybind1113pybind11_failERKNSt7__cxx1112basic_stringIcSt11char_traitsIcESaIcEEE,"axG",@progbits,_ZN8pybind1113pybind11_failERKNSt7__cxx1112basic_stringIcSt11char_traitsIcESaIcEEE,comdat
	.hidden	_ZN8pybind1113pybind11_failERKNSt7__cxx1112basic_stringIcSt11char_traitsIcESaIcEEE # -- Begin function _ZN8pybind1113pybind11_failERKNSt7__cxx1112basic_stringIcSt11char_traitsIcESaIcEEE
	.weak	_ZN8pybind1113pybind11_failERKNSt7__cxx1112basic_stringIcSt11char_traitsIcESaIcEEE
	.p2align	4, 0x90
	.type	_ZN8pybind1113pybind11_failERKNSt7__cxx1112basic_stringIcSt11char_traitsIcESaIcEEE,@function
_ZN8pybind1113pybind11_failERKNSt7__cxx1112basic_stringIcSt11char_traitsIcESaIcEEE: # @_ZN8pybind1113pybind11_failERKNSt7__cxx1112basic_stringIcSt11char_traitsIcESaIcEEE
.Lfunc_begin13:
	.cfi_startproc
	.cfi_personality 155, DW.ref.__gxx_personality_v0
	.cfi_lsda 27, .Lexception13
# %bb.0:                                # %entry
	pushq	%r14
	.cfi_def_cfa_offset 16
	pushq	%rbx
	.cfi_def_cfa_offset 24
	pushq	%rax
	.cfi_def_cfa_offset 32
	.cfi_offset %rbx, -24
	.cfi_offset %r14, -16
	movq	%rdi, %r14
	callq	PyErr_Occurred@PLT
	testq	%rax, %rax
	jne	.LBB24_4
# %bb.1:                                # %cond.end
	movl	$16, %edi
	callq	__cxa_allocate_exception@PLT
	movq	%rax, %rbx
.Ltmp519:
	movq	%rax, %rdi
	movq	%r14, %rsi
	callq	_ZNSt13runtime_errorC1ERKNSt7__cxx1112basic_stringIcSt11char_traitsIcESaIcEEE@PLT
.Ltmp520:
# %bb.2:                                # %invoke.cont
	movq	_ZTISt13runtime_error@GOTPCREL(%rip), %rsi
	movq	_ZNSt13runtime_errorD1Ev@GOTPCREL(%rip), %rdx
	movq	%rbx, %rdi
	callq	__cxa_throw@PLT
.LBB24_4:                               # %cond.false
	leaq	.L.str.5(%rip), %rdi
	leaq	.L.str.6(%rip), %rsi
	leaq	.L__PRETTY_FUNCTION__._ZN8pybind1113pybind11_failERKNSt7__cxx1112basic_stringIcSt11char_traitsIcESaIcEEE(%rip), %rcx
	movl	$1050, %edx                     # imm = 0x41A
	callq	__assert_fail@PLT
.LBB24_3:                               # %lpad
.Ltmp521:
	movq	%rax, %r14
	movq	%rbx, %rdi
	callq	__cxa_free_exception@PLT
	movq	%r14, %rdi
	callq	_Unwind_Resume@PLT
.Lfunc_end24:
	.size	_ZN8pybind1113pybind11_failERKNSt7__cxx1112basic_stringIcSt11char_traitsIcESaIcEEE, .Lfunc_end24-_ZN8pybind1113pybind11_failERKNSt7__cxx1112basic_stringIcSt11char_traitsIcESaIcEEE
	.cfi_endproc
	.section	.gcc_except_table._ZN8pybind1113pybind11_failERKNSt7__cxx1112basic_stringIcSt11char_traitsIcESaIcEEE,"aG",@progbits,_ZN8pybind1113pybind11_failERKNSt7__cxx1112basic_stringIcSt11char_traitsIcESaIcEEE,comdat
	.p2align	2, 0x0
GCC_except_table24:
.Lexception13:
	.byte	255                             # @LPStart Encoding = omit
	.byte	255                             # @TType Encoding = omit
	.byte	1                               # Call site Encoding = uleb128
	.uleb128 .Lcst_end13-.Lcst_begin13
.Lcst_begin13:
	.uleb128 .Lfunc_begin13-.Lfunc_begin13  # >> Call Site 1 <<
	.uleb128 .Ltmp519-.Lfunc_begin13        #   Call between .Lfunc_begin13 and .Ltmp519
	.byte	0                               #     has no landing pad
	.byte	0                               #   On action: cleanup
	.uleb128 .Ltmp519-.Lfunc_begin13        # >> Call Site 2 <<
	.uleb128 .Ltmp520-.Ltmp519              #   Call between .Ltmp519 and .Ltmp520
	.uleb128 .Ltmp521-.Lfunc_begin13        #     jumps to .Ltmp521
	.byte	0                               #   On action: cleanup
	.uleb128 .Ltmp520-.Lfunc_begin13        # >> Call Site 3 <<
	.uleb128 .Lfunc_end24-.Ltmp520          #   Call between .Ltmp520 and .Lfunc_end24
	.byte	0                               #     has no landing pad
	.byte	0                               #   On action: cleanup
.Lcst_end13:
	.p2align	2, 0x0
                                        # -- End function
	.section	.text._ZStplIcSt11char_traitsIcESaIcEENSt7__cxx1112basic_stringIT_T0_T1_EEOS8_PKS5_,"axG",@progbits,_ZStplIcSt11char_traitsIcESaIcEENSt7__cxx1112basic_stringIT_T0_T1_EEOS8_PKS5_,comdat
	.weak	_ZStplIcSt11char_traitsIcESaIcEENSt7__cxx1112basic_stringIT_T0_T1_EEOS8_PKS5_ # -- Begin function _ZStplIcSt11char_traitsIcESaIcEENSt7__cxx1112basic_stringIT_T0_T1_EEOS8_PKS5_
	.p2align	4, 0x90
	.type	_ZStplIcSt11char_traitsIcESaIcEENSt7__cxx1112basic_stringIT_T0_T1_EEOS8_PKS5_,@function
_ZStplIcSt11char_traitsIcESaIcEENSt7__cxx1112basic_stringIT_T0_T1_EEOS8_PKS5_: # @_ZStplIcSt11char_traitsIcESaIcEENSt7__cxx1112basic_stringIT_T0_T1_EEOS8_PKS5_
	.cfi_startproc
# %bb.0:                                # %entry
	pushq	%r15
	.cfi_def_cfa_offset 16
	pushq	%r14
	.cfi_def_cfa_offset 24
	pushq	%r13
	.cfi_def_cfa_offset 32
	pushq	%r12
	.cfi_def_cfa_offset 40
	pushq	%rbx
	.cfi_def_cfa_offset 48
	.cfi_offset %rbx, -48
	.cfi_offset %r12, -40
	.cfi_offset %r13, -32
	.cfi_offset %r14, -24
	.cfi_offset %r15, -16
	movq	%rdx, %r15
	movq	%rsi, %r14
	movq	%rdi, %rbx
	movq	%rdx, %rdi
	callq	strlen@PLT
	movq	8(%r14), %rsi
	movabsq	$9223372036854775807, %rcx      # imm = 0x7FFFFFFFFFFFFFFF
	xorq	%rsi, %rcx
	cmpq	%rax, %rcx
	jb	.LBB25_13
# %bb.1:                                # %_ZNKSt7__cxx1112basic_stringIcSt11char_traitsIcESaIcEE15_M_check_lengthEmmPKc.exit.i
	leaq	(%rsi,%rax), %r13
	movq	(%r14), %rdi
	leaq	16(%r14), %r12
	movl	$15, %ecx
	cmpq	%r12, %rdi
	je	.LBB25_3
# %bb.2:                                # %_ZNKSt7__cxx1112basic_stringIcSt11char_traitsIcESaIcEE15_M_check_lengthEmmPKc.exit.i
	movq	16(%r14), %rcx
.LBB25_3:                               # %_ZNKSt7__cxx1112basic_stringIcSt11char_traitsIcESaIcEE15_M_check_lengthEmmPKc.exit.i
	cmpq	%rcx, %r13
	jbe	.LBB25_4
# %bb.8:                                # %if.else.i.i
	movq	%r14, %rdi
	xorl	%edx, %edx
	movq	%r15, %rcx
	movq	%rax, %r8
	callq	_ZNSt7__cxx1112basic_stringIcSt11char_traitsIcESaIcEE9_M_mutateEmmPKcm@PLT
	jmp	.LBB25_9
.LBB25_4:                               # %if.then.i4.i
	testq	%rax, %rax
	je	.LBB25_9
# %bb.5:                                # %if.then3.i.i
	addq	%rsi, %rdi
	cmpq	$1, %rax
	jne	.LBB25_7
# %bb.6:                                # %if.then.i.i.i
	movzbl	(%r15), %eax
	movb	%al, (%rdi)
	jmp	.LBB25_9
.LBB25_7:                               # %if.end.i.i.i.i
	movq	%r15, %rsi
	movq	%rax, %rdx
	callq	memcpy@PLT
.LBB25_9:                               # %_ZNSt7__cxx1112basic_stringIcSt11char_traitsIcESaIcEE6appendEPKc.exit
	movq	%r13, 8(%r14)
	movq	(%r14), %rax
	movb	$0, (%rax,%r13)
	leaq	16(%rbx), %rax
	movq	%rax, (%rbx)
	movq	(%r14), %rcx
	cmpq	%r12, %rcx
	je	.LBB25_10
# %bb.11:                               # %if.else.i
	movq	%rcx, (%rbx)
	movq	(%r12), %rax
	movq	%rax, 16(%rbx)
	jmp	.LBB25_12
.LBB25_10:                              # %if.then.i
	movups	(%r12), %xmm0
	movups	%xmm0, (%rax)
.LBB25_12:                              # %_ZNSt7__cxx1112basic_stringIcSt11char_traitsIcESaIcEEC2EOS4_.exit
	movq	8(%r14), %rax
	movq	%rax, 8(%rbx)
	movq	%r12, (%r14)
	movq	$0, 8(%r14)
	movb	$0, 16(%r14)
	movq	%rbx, %rax
	popq	%rbx
	.cfi_def_cfa_offset 40
	popq	%r12
	.cfi_def_cfa_offset 32
	popq	%r13
	.cfi_def_cfa_offset 24
	popq	%r14
	.cfi_def_cfa_offset 16
	popq	%r15
	.cfi_def_cfa_offset 8
	retq
.LBB25_13:                              # %if.then.i.i
	.cfi_def_cfa_offset 48
	leaq	.L.str.30(%rip), %rdi
	callq	_ZSt20__throw_length_errorPKc@PLT
.Lfunc_end25:
	.size	_ZStplIcSt11char_traitsIcESaIcEENSt7__cxx1112basic_stringIT_T0_T1_EEOS8_PKS5_, .Lfunc_end25-_ZStplIcSt11char_traitsIcESaIcEENSt7__cxx1112basic_stringIT_T0_T1_EEOS8_PKS5_
	.cfi_endproc
                                        # -- End function
	.section	.text._ZNSt7__cxx1112basic_stringIcSt11char_traitsIcESaIcEEC2IS3_EEPKcRKS3_,"axG",@progbits,_ZNSt7__cxx1112basic_stringIcSt11char_traitsIcESaIcEEC2IS3_EEPKcRKS3_,comdat
	.weak	_ZNSt7__cxx1112basic_stringIcSt11char_traitsIcESaIcEEC2IS3_EEPKcRKS3_ # -- Begin function _ZNSt7__cxx1112basic_stringIcSt11char_traitsIcESaIcEEC2IS3_EEPKcRKS3_
	.p2align	4, 0x90
	.type	_ZNSt7__cxx1112basic_stringIcSt11char_traitsIcESaIcEEC2IS3_EEPKcRKS3_,@function
_ZNSt7__cxx1112basic_stringIcSt11char_traitsIcESaIcEEC2IS3_EEPKcRKS3_: # @_ZNSt7__cxx1112basic_stringIcSt11char_traitsIcESaIcEEC2IS3_EEPKcRKS3_
	.cfi_startproc
# %bb.0:                                # %entry
	pushq	%r15
	.cfi_def_cfa_offset 16
	pushq	%r14
	.cfi_def_cfa_offset 24
	pushq	%r12
	.cfi_def_cfa_offset 32
	pushq	%rbx
	.cfi_def_cfa_offset 40
	pushq	%rax
	.cfi_def_cfa_offset 48
	.cfi_offset %rbx, -40
	.cfi_offset %r12, -32
	.cfi_offset %r14, -24
	.cfi_offset %r15, -16
	leaq	16(%rdi), %r12
	movq	%r12, (%rdi)
	testq	%rsi, %rsi
	je	.LBB26_10
# %bb.1:                                # %if.end.i
	movq	%rsi, %r14
	movq	%rdi, %rbx
	movq	%rsi, %rdi
	callq	strlen@PLT
	movq	%rax, %r15
	cmpq	$16, %rax
	jb	.LBB26_5
# %bb.2:                                # %if.then4.i
	testq	%r15, %r15
	js	.LBB26_11
# %bb.3:                                # %if.end11.i.i
	movq	%r15, %rdi
	incq	%rdi
	js	.LBB26_12
# %bb.4:                                # %_ZNSt7__cxx1112basic_stringIcSt11char_traitsIcESaIcEE9_M_createERmm.exit.i
	callq	_Znwm@PLT
	movq	%rax, %r12
	movq	%rax, (%rbx)
	movq	%r15, 16(%rbx)
.LBB26_5:                               # %if.end6.i
	testq	%r15, %r15
	je	.LBB26_9
# %bb.6:                                # %if.end6.i
	cmpq	$1, %r15
	jne	.LBB26_8
# %bb.7:                                # %if.then.i.i.i
	movzbl	(%r14), %eax
	movb	%al, (%r12)
	jmp	.LBB26_9
.LBB26_8:                               # %if.end.i.i.i.i
	movq	%r12, %rdi
	movq	%r14, %rsi
	movq	%r15, %rdx
	callq	memcpy@PLT
.LBB26_9:                               # %invoke.cont4
	movq	%r15, 8(%rbx)
	movb	$0, (%r12,%r15)
	addq	$8, %rsp
	.cfi_def_cfa_offset 40
	popq	%rbx
	.cfi_def_cfa_offset 32
	popq	%r12
	.cfi_def_cfa_offset 24
	popq	%r14
	.cfi_def_cfa_offset 16
	popq	%r15
	.cfi_def_cfa_offset 8
	retq
.LBB26_12:                              # %if.end.i.i.i.i.i
	.cfi_def_cfa_offset 48
	callq	_ZSt17__throw_bad_allocv@PLT
.LBB26_10:                              # %if.then.i
	leaq	.L.str.31(%rip), %rdi
	callq	_ZSt19__throw_logic_errorPKc@PLT
.LBB26_11:                              # %if.then.i.i
	leaq	.L.str.10(%rip), %rdi
	callq	_ZSt20__throw_length_errorPKc@PLT
.Lfunc_end26:
	.size	_ZNSt7__cxx1112basic_stringIcSt11char_traitsIcESaIcEEC2IS3_EEPKcRKS3_, .Lfunc_end26-_ZNSt7__cxx1112basic_stringIcSt11char_traitsIcESaIcEEC2IS3_EEPKcRKS3_
	.cfi_endproc
                                        # -- End function
	.section	.text._ZNKR8pybind116handle7dec_refEv,"axG",@progbits,_ZNKR8pybind116handle7dec_refEv,comdat
	.hidden	_ZNKR8pybind116handle7dec_refEv # -- Begin function _ZNKR8pybind116handle7dec_refEv
	.weak	_ZNKR8pybind116handle7dec_refEv
	.p2align	4, 0x90
	.type	_ZNKR8pybind116handle7dec_refEv,@function
_ZNKR8pybind116handle7dec_refEv:        # @_ZNKR8pybind116handle7dec_refEv
.Lfunc_begin14:
	.cfi_startproc
	.cfi_personality 155, DW.ref.__gxx_personality_v0
	.cfi_lsda 27, .Lexception14
# %bb.0:                                # %entry
	pushq	%r14
	.cfi_def_cfa_offset 16
	pushq	%rbx
	.cfi_def_cfa_offset 24
	subq	$40, %rsp
	.cfi_def_cfa_offset 64
	.cfi_offset %rbx, -24
	.cfi_offset %r14, -16
	movq	%rdi, %rbx
	cmpq	$0, (%rdi)
	je	.LBB27_8
# %bb.1:                                # %land.lhs.true
	callq	PyGILState_Check@PLT
	testl	%eax, %eax
	jne	.LBB27_5
# %bb.2:                                # %if.then
	leaq	24(%rsp), %r14
	movq	%r14, 8(%rsp)
	movl	$28, %edi
	callq	_Znwm@PLT
	movq	%rax, 8(%rsp)
	movq	$27, 24(%rsp)
	movups	.L.str.32(%rip), %xmm0
	movups	%xmm0, (%rax)
	movups	.L.str.32+11(%rip), %xmm0
	movups	%xmm0, 11(%rax)
	movq	$27, 16(%rsp)
	movb	$0, 27(%rax)
.Ltmp522:
	leaq	8(%rsp), %rsi
	movq	%rbx, %rdi
	callq	_ZNK8pybind116handle20throw_gilstate_errorERKNSt7__cxx1112basic_stringIcSt11char_traitsIcESaIcEEE
.Ltmp523:
# %bb.3:                                # %invoke.cont4
	movq	8(%rsp), %rdi
	cmpq	%r14, %rdi
	je	.LBB27_5
# %bb.4:                                # %if.then.i.i
	movq	24(%rsp), %rsi
	incq	%rsi
	callq	_ZdlPvm@PLT
.LBB27_5:                               # %if.end
	movq	(%rbx), %rdi
	testq	%rdi, %rdi
	je	.LBB27_8
# %bb.6:                                # %if.then.i
	decq	(%rdi)
	jne	.LBB27_8
# %bb.7:                                # %if.else.i.i
	callq	_Py_Dealloc@PLT
.LBB27_8:                               # %_ZL11_Py_XDECREFP7_object.exit
	movq	%rbx, %rax
	addq	$40, %rsp
	.cfi_def_cfa_offset 24
	popq	%rbx
	.cfi_def_cfa_offset 16
	popq	%r14
	.cfi_def_cfa_offset 8
	retq
.LBB27_9:                               # %lpad3
	.cfi_def_cfa_offset 64
.Ltmp524:
	movq	%rax, %rbx
	movq	8(%rsp), %rdi
	cmpq	%r14, %rdi
	je	.LBB27_11
# %bb.10:                               # %if.then.i.i6
	movq	24(%rsp), %rsi
	incq	%rsi
	callq	_ZdlPvm@PLT
.LBB27_11:                              # %ehcleanup
	movq	%rbx, %rdi
	callq	_Unwind_Resume@PLT
.Lfunc_end27:
	.size	_ZNKR8pybind116handle7dec_refEv, .Lfunc_end27-_ZNKR8pybind116handle7dec_refEv
	.cfi_endproc
	.section	.gcc_except_table._ZNKR8pybind116handle7dec_refEv,"aG",@progbits,_ZNKR8pybind116handle7dec_refEv,comdat
	.p2align	2, 0x0
GCC_except_table27:
.Lexception14:
	.byte	255                             # @LPStart Encoding = omit
	.byte	255                             # @TType Encoding = omit
	.byte	1                               # Call site Encoding = uleb128
	.uleb128 .Lcst_end14-.Lcst_begin14
.Lcst_begin14:
	.uleb128 .Lfunc_begin14-.Lfunc_begin14  # >> Call Site 1 <<
	.uleb128 .Ltmp522-.Lfunc_begin14        #   Call between .Lfunc_begin14 and .Ltmp522
	.byte	0                               #     has no landing pad
	.byte	0                               #   On action: cleanup
	.uleb128 .Ltmp522-.Lfunc_begin14        # >> Call Site 2 <<
	.uleb128 .Ltmp523-.Ltmp522              #   Call between .Ltmp522 and .Ltmp523
	.uleb128 .Ltmp524-.Lfunc_begin14        #     jumps to .Ltmp524
	.byte	0                               #   On action: cleanup
	.uleb128 .Ltmp523-.Lfunc_begin14        # >> Call Site 3 <<
	.uleb128 .Lfunc_end27-.Ltmp523          #   Call between .Ltmp523 and .Lfunc_end27
	.byte	0                               #     has no landing pad
	.byte	0                               #   On action: cleanup
.Lcst_end14:
	.p2align	2, 0x0
                                        # -- End function
	.section	.text._ZNK8pybind116handle20throw_gilstate_errorERKNSt7__cxx1112basic_stringIcSt11char_traitsIcESaIcEEE,"axG",@progbits,_ZNK8pybind116handle20throw_gilstate_errorERKNSt7__cxx1112basic_stringIcSt11char_traitsIcESaIcEEE,comdat
	.hidden	_ZNK8pybind116handle20throw_gilstate_errorERKNSt7__cxx1112basic_stringIcSt11char_traitsIcESaIcEEE # -- Begin function _ZNK8pybind116handle20throw_gilstate_errorERKNSt7__cxx1112basic_stringIcSt11char_traitsIcESaIcEEE
	.weak	_ZNK8pybind116handle20throw_gilstate_errorERKNSt7__cxx1112basic_stringIcSt11char_traitsIcESaIcEEE
	.p2align	4, 0x90
	.type	_ZNK8pybind116handle20throw_gilstate_errorERKNSt7__cxx1112basic_stringIcSt11char_traitsIcESaIcEEE,@function
_ZNK8pybind116handle20throw_gilstate_errorERKNSt7__cxx1112basic_stringIcSt11char_traitsIcESaIcEEE: # @_ZNK8pybind116handle20throw_gilstate_errorERKNSt7__cxx1112basic_stringIcSt11char_traitsIcESaIcEEE
.Lfunc_begin15:
	.cfi_startproc
	.cfi_personality 155, DW.ref.__gxx_personality_v0
	.cfi_lsda 27, .Lexception15
# %bb.0:                                # %entry
	pushq	%rbp
	.cfi_def_cfa_offset 16
	pushq	%r15
	.cfi_def_cfa_offset 24
	pushq	%r14
	.cfi_def_cfa_offset 32
	pushq	%rbx
	.cfi_def_cfa_offset 40
	subq	$40, %rsp
	.cfi_def_cfa_offset 80
	.cfi_offset %rbx, -40
	.cfi_offset %r14, -32
	.cfi_offset %r15, -24
	.cfi_offset %rbp, -16
	movq	%rsi, %r14
	movq	%rdi, %rbx
	movq	stderr@GOTPCREL(%rip), %r15
	movq	(%r15), %rdi
	movq	(%rsi), %rdx
	leaq	.L.str.33(%rip), %rsi
	xorl	%eax, %eax
	callq	fprintf@PLT
	movq	(%rbx), %rax
	movq	8(%rax), %rax
	movq	24(%rax), %rcx
	testq	%rcx, %rcx
	je	.LBB28_2
# %bb.1:                                # %if.then
	movq	(%r15), %rdi
	movq	(%r14), %rdx
	leaq	.L.str.34(%rip), %rsi
	xorl	%eax, %eax
	callq	fprintf@PLT
.LBB28_2:                               # %if.end
	movq	(%r15), %rsi
	movl	$10, %edi
	callq	fputc@PLT
	movq	(%r15), %rdi
	callq	fflush@PLT
	movl	$16, %edi
	callq	__cxa_allocate_exception@PLT
	movq	%rax, %rbx
.Ltmp525:
	leaq	.L.str.36(%rip), %rdx
	leaq	8(%rsp), %rdi
	movq	%r14, %rsi
	callq	_ZStplIcSt11char_traitsIcESaIcEENSt7__cxx1112basic_stringIT_T0_T1_EERKS8_PKS5_@PLT
.Ltmp526:
# %bb.3:                                # %invoke.cont
	movb	$1, %bpl
.Ltmp528:
	leaq	8(%rsp), %rsi
	movq	%rbx, %rdi
	callq	_ZNSt13runtime_errorC1ERKNSt7__cxx1112basic_stringIcSt11char_traitsIcESaIcEEE@PLT
.Ltmp529:
# %bb.4:                                # %invoke.cont11
	xorl	%ebp, %ebp
.Ltmp530:
	movq	_ZTISt13runtime_error@GOTPCREL(%rip), %rsi
	movq	_ZNSt13runtime_errorD1Ev@GOTPCREL(%rip), %rdx
	movq	%rbx, %rdi
	callq	__cxa_throw@PLT
.Ltmp531:
# %bb.11:                               # %unreachable
.LBB28_6:                               # %lpad10
.Ltmp532:
	movq	%rax, %r14
	movq	8(%rsp), %rdi
	leaq	24(%rsp), %rax
	cmpq	%rax, %rdi
	jne	.LBB28_7
# %bb.8:                                # %ehcleanup
	testb	%bpl, %bpl
	jne	.LBB28_9
.LBB28_10:                              # %eh.resume
	movq	%r14, %rdi
	callq	_Unwind_Resume@PLT
.LBB28_7:                               # %if.then.i.i
	movq	24(%rsp), %rsi
	incq	%rsi
	callq	_ZdlPvm@PLT
	testb	%bpl, %bpl
	je	.LBB28_10
.LBB28_9:                               # %cleanup.action
	movq	%rbx, %rdi
	callq	__cxa_free_exception@PLT
	movq	%r14, %rdi
	callq	_Unwind_Resume@PLT
.LBB28_5:                               # %ehcleanup.thread
.Ltmp527:
	movq	%rax, %r14
	movq	%rbx, %rdi
	callq	__cxa_free_exception@PLT
	movq	%r14, %rdi
	callq	_Unwind_Resume@PLT
.Lfunc_end28:
	.size	_ZNK8pybind116handle20throw_gilstate_errorERKNSt7__cxx1112basic_stringIcSt11char_traitsIcESaIcEEE, .Lfunc_end28-_ZNK8pybind116handle20throw_gilstate_errorERKNSt7__cxx1112basic_stringIcSt11char_traitsIcESaIcEEE
	.cfi_endproc
	.section	.gcc_except_table._ZNK8pybind116handle20throw_gilstate_errorERKNSt7__cxx1112basic_stringIcSt11char_traitsIcESaIcEEE,"aG",@progbits,_ZNK8pybind116handle20throw_gilstate_errorERKNSt7__cxx1112basic_stringIcSt11char_traitsIcESaIcEEE,comdat
	.p2align	2, 0x0
GCC_except_table28:
.Lexception15:
	.byte	255                             # @LPStart Encoding = omit
	.byte	255                             # @TType Encoding = omit
	.byte	1                               # Call site Encoding = uleb128
	.uleb128 .Lcst_end15-.Lcst_begin15
.Lcst_begin15:
	.uleb128 .Lfunc_begin15-.Lfunc_begin15  # >> Call Site 1 <<
	.uleb128 .Ltmp525-.Lfunc_begin15        #   Call between .Lfunc_begin15 and .Ltmp525
	.byte	0                               #     has no landing pad
	.byte	0                               #   On action: cleanup
	.uleb128 .Ltmp525-.Lfunc_begin15        # >> Call Site 2 <<
	.uleb128 .Ltmp526-.Ltmp525              #   Call between .Ltmp525 and .Ltmp526
	.uleb128 .Ltmp527-.Lfunc_begin15        #     jumps to .Ltmp527
	.byte	0                               #   On action: cleanup
	.uleb128 .Ltmp528-.Lfunc_begin15        # >> Call Site 3 <<
	.uleb128 .Ltmp531-.Ltmp528              #   Call between .Ltmp528 and .Ltmp531
	.uleb128 .Ltmp532-.Lfunc_begin15        #     jumps to .Ltmp532
	.byte	0                               #   On action: cleanup
	.uleb128 .Ltmp531-.Lfunc_begin15        # >> Call Site 4 <<
	.uleb128 .Lfunc_end28-.Ltmp531          #   Call between .Ltmp531 and .Lfunc_end28
	.byte	0                               #     has no landing pad
	.byte	0                               #   On action: cleanup
.Lcst_end15:
	.p2align	2, 0x0
                                        # -- End function
	.section	.text._ZStplIcSt11char_traitsIcESaIcEENSt7__cxx1112basic_stringIT_T0_T1_EERKS8_PKS5_,"axG",@progbits,_ZStplIcSt11char_traitsIcESaIcEENSt7__cxx1112basic_stringIT_T0_T1_EERKS8_PKS5_,comdat
	.weak	_ZStplIcSt11char_traitsIcESaIcEENSt7__cxx1112basic_stringIT_T0_T1_EERKS8_PKS5_ # -- Begin function _ZStplIcSt11char_traitsIcESaIcEENSt7__cxx1112basic_stringIT_T0_T1_EERKS8_PKS5_
	.p2align	4, 0x90
	.type	_ZStplIcSt11char_traitsIcESaIcEENSt7__cxx1112basic_stringIT_T0_T1_EERKS8_PKS5_,@function
_ZStplIcSt11char_traitsIcESaIcEENSt7__cxx1112basic_stringIT_T0_T1_EERKS8_PKS5_: # @_ZStplIcSt11char_traitsIcESaIcEENSt7__cxx1112basic_stringIT_T0_T1_EERKS8_PKS5_
.Lfunc_begin16:
	.cfi_startproc
	.cfi_personality 155, DW.ref.__gxx_personality_v0
	.cfi_lsda 27, .Lexception16
# %bb.0:                                # %entry
	pushq	%rbp
	.cfi_def_cfa_offset 16
	pushq	%r15
	.cfi_def_cfa_offset 24
	pushq	%r14
	.cfi_def_cfa_offset 32
	pushq	%r13
	.cfi_def_cfa_offset 40
	pushq	%r12
	.cfi_def_cfa_offset 48
	pushq	%rbx
	.cfi_def_cfa_offset 56
	pushq	%rax
	.cfi_def_cfa_offset 64
	.cfi_offset %rbx, -56
	.cfi_offset %r12, -48
	.cfi_offset %r13, -40
	.cfi_offset %r14, -32
	.cfi_offset %r15, -24
	.cfi_offset %rbp, -16
	movq	%rdx, %r14
	movq	%rdi, %rbx
	leaq	16(%rdi), %rbp
	movq	%rbp, (%rdi)
	movq	(%rsi), %r12
	movq	8(%rsi), %r15
	movq	%rbp, %r13
	cmpq	$16, %r15
	jb	.LBB29_4
# %bb.1:                                # %if.then4.i.i.i.i
	testq	%r15, %r15
	js	.LBB29_23
# %bb.2:                                # %if.end11.i.i.i.i.i
	movq	%r15, %rdi
	incq	%rdi
	js	.LBB29_24
# %bb.3:                                # %_ZNSt7__cxx1112basic_stringIcSt11char_traitsIcESaIcEE9_M_createERmm.exit.i.i.i.i
	callq	_Znwm@PLT
	movq	%rax, %r13
	movq	%rax, (%rbx)
	movq	%r15, 16(%rbx)
.LBB29_4:                               # %if.end6.i.i.i.i
	testq	%r15, %r15
	je	.LBB29_8
# %bb.5:                                # %if.end6.i.i.i.i
	cmpq	$1, %r15
	jne	.LBB29_7
# %bb.6:                                # %if.then.i.i.i.i.i.i
	movzbl	(%r12), %eax
	movb	%al, (%r13)
	jmp	.LBB29_8
.LBB29_7:                               # %if.end.i.i.i.i.i.i.i
	movq	%r13, %rdi
	movq	%r12, %rsi
	movq	%r15, %rdx
	callq	memcpy@PLT
.LBB29_8:                               # %_ZNSt7__cxx1112basic_stringIcSt11char_traitsIcESaIcEEC2ERKS4_.exit
	movq	%r15, 8(%rbx)
	movb	$0, (%r13,%r15)
	movq	%r14, %rdi
	callq	strlen@PLT
	movq	8(%rbx), %rsi
	movabsq	$9223372036854775807, %rcx      # imm = 0x7FFFFFFFFFFFFFFF
	xorq	%rsi, %rcx
	cmpq	%rax, %rcx
	jb	.LBB29_9
# %bb.11:                               # %_ZNKSt7__cxx1112basic_stringIcSt11char_traitsIcESaIcEE15_M_check_lengthEmmPKc.exit.i
	leaq	(%rsi,%rax), %r15
	movq	(%rbx), %rdi
	movl	$15, %ecx
	cmpq	%rbp, %rdi
	je	.LBB29_13
# %bb.12:                               # %_ZNKSt7__cxx1112basic_stringIcSt11char_traitsIcESaIcEE15_M_check_lengthEmmPKc.exit.i
	movq	16(%rbx), %rcx
.LBB29_13:                              # %_ZNKSt7__cxx1112basic_stringIcSt11char_traitsIcESaIcEE15_M_check_lengthEmmPKc.exit.i
	cmpq	%rcx, %r15
	jbe	.LBB29_14
# %bb.17:                               # %if.else.i.i
.Ltmp533:
	movq	%rbx, %rdi
	xorl	%edx, %edx
	movq	%r14, %rcx
	movq	%rax, %r8
	callq	_ZNSt7__cxx1112basic_stringIcSt11char_traitsIcESaIcEE9_M_mutateEmmPKcm@PLT
.Ltmp534:
	jmp	.LBB29_22
.LBB29_14:                              # %if.then.i4.i
	testq	%rax, %rax
	je	.LBB29_22
# %bb.15:                               # %if.then3.i.i
	addq	%rsi, %rdi
	cmpq	$1, %rax
	jne	.LBB29_21
# %bb.16:                               # %if.then.i.i.i
	movzbl	(%r14), %eax
	movb	%al, (%rdi)
	jmp	.LBB29_22
.LBB29_21:                              # %if.end.i.i.i.i
	movq	%r14, %rsi
	movq	%rax, %rdx
	callq	memcpy@PLT
.LBB29_22:                              # %nrvo.skipdtor
	movq	%r15, 8(%rbx)
	movq	(%rbx), %rax
	movb	$0, (%rax,%r15)
	movq	%rbx, %rax
	addq	$8, %rsp
	.cfi_def_cfa_offset 56
	popq	%rbx
	.cfi_def_cfa_offset 48
	popq	%r12
	.cfi_def_cfa_offset 40
	popq	%r13
	.cfi_def_cfa_offset 32
	popq	%r14
	.cfi_def_cfa_offset 24
	popq	%r15
	.cfi_def_cfa_offset 16
	popq	%rbp
	.cfi_def_cfa_offset 8
	retq
.LBB29_24:                              # %if.end.i.i.i.i.i.i.i.i
	.cfi_def_cfa_offset 64
	callq	_ZSt17__throw_bad_allocv@PLT
.LBB29_9:                               # %if.then.i.i
.Ltmp535:
	leaq	.L.str.30(%rip), %rdi
	callq	_ZSt20__throw_length_errorPKc@PLT
.Ltmp536:
# %bb.10:                               # %.noexc
.LBB29_23:                              # %if.then.i.i.i.i.i
	leaq	.L.str.10(%rip), %rdi
	callq	_ZSt20__throw_length_errorPKc@PLT
.LBB29_18:                              # %lpad
.Ltmp537:
	movq	%rax, %r14
	movq	(%rbx), %rdi
	cmpq	%rbp, %rdi
	je	.LBB29_20
# %bb.19:                               # %if.then.i.i2
	movq	(%rbp), %rsi
	incq	%rsi
	callq	_ZdlPvm@PLT
.LBB29_20:                              # %_ZNSt7__cxx1112basic_stringIcSt11char_traitsIcESaIcEED2Ev.exit
	movq	%r14, %rdi
	callq	_Unwind_Resume@PLT
.Lfunc_end29:
	.size	_ZStplIcSt11char_traitsIcESaIcEENSt7__cxx1112basic_stringIT_T0_T1_EERKS8_PKS5_, .Lfunc_end29-_ZStplIcSt11char_traitsIcESaIcEENSt7__cxx1112basic_stringIT_T0_T1_EERKS8_PKS5_
	.cfi_endproc
	.section	.gcc_except_table._ZStplIcSt11char_traitsIcESaIcEENSt7__cxx1112basic_stringIT_T0_T1_EERKS8_PKS5_,"aG",@progbits,_ZStplIcSt11char_traitsIcESaIcEENSt7__cxx1112basic_stringIT_T0_T1_EERKS8_PKS5_,comdat
	.p2align	2, 0x0
GCC_except_table29:
.Lexception16:
	.byte	255                             # @LPStart Encoding = omit
	.byte	255                             # @TType Encoding = omit
	.byte	1                               # Call site Encoding = uleb128
	.uleb128 .Lcst_end16-.Lcst_begin16
.Lcst_begin16:
	.uleb128 .Lfunc_begin16-.Lfunc_begin16  # >> Call Site 1 <<
	.uleb128 .Ltmp533-.Lfunc_begin16        #   Call between .Lfunc_begin16 and .Ltmp533
	.byte	0                               #     has no landing pad
	.byte	0                               #   On action: cleanup
	.uleb128 .Ltmp533-.Lfunc_begin16        # >> Call Site 2 <<
	.uleb128 .Ltmp534-.Ltmp533              #   Call between .Ltmp533 and .Ltmp534
	.uleb128 .Ltmp537-.Lfunc_begin16        #     jumps to .Ltmp537
	.byte	0                               #   On action: cleanup
	.uleb128 .Ltmp534-.Lfunc_begin16        # >> Call Site 3 <<
	.uleb128 .Ltmp535-.Ltmp534              #   Call between .Ltmp534 and .Ltmp535
	.byte	0                               #     has no landing pad
	.byte	0                               #   On action: cleanup
	.uleb128 .Ltmp535-.Lfunc_begin16        # >> Call Site 4 <<
	.uleb128 .Ltmp536-.Ltmp535              #   Call between .Ltmp535 and .Ltmp536
	.uleb128 .Ltmp537-.Lfunc_begin16        #     jumps to .Ltmp537
	.byte	0                               #   On action: cleanup
	.uleb128 .Ltmp536-.Lfunc_begin16        # >> Call Site 5 <<
	.uleb128 .Lfunc_end29-.Ltmp536          #   Call between .Ltmp536 and .Lfunc_end29
	.byte	0                               #     has no landing pad
	.byte	0                               #   On action: cleanup
.Lcst_end16:
	.p2align	2, 0x0
                                        # -- End function
	.section	.text._ZN8pybind116detail9load_typeINSt7__cxx1112basic_stringIcSt11char_traitsIcESaIcEEEvEERNS0_11type_casterIT_T0_EESC_RKNS_6handleE,"axG",@progbits,_ZN8pybind116detail9load_typeINSt7__cxx1112basic_stringIcSt11char_traitsIcESaIcEEEvEERNS0_11type_casterIT_T0_EESC_RKNS_6handleE,comdat
	.hidden	_ZN8pybind116detail9load_typeINSt7__cxx1112basic_stringIcSt11char_traitsIcESaIcEEEvEERNS0_11type_casterIT_T0_EESC_RKNS_6handleE # -- Begin function _ZN8pybind116detail9load_typeINSt7__cxx1112basic_stringIcSt11char_traitsIcESaIcEEEvEERNS0_11type_casterIT_T0_EESC_RKNS_6handleE
	.weak	_ZN8pybind116detail9load_typeINSt7__cxx1112basic_stringIcSt11char_traitsIcESaIcEEEvEERNS0_11type_casterIT_T0_EESC_RKNS_6handleE
	.p2align	4, 0x90
	.type	_ZN8pybind116detail9load_typeINSt7__cxx1112basic_stringIcSt11char_traitsIcESaIcEEEvEERNS0_11type_casterIT_T0_EESC_RKNS_6handleE,@function
_ZN8pybind116detail9load_typeINSt7__cxx1112basic_stringIcSt11char_traitsIcESaIcEEEvEERNS0_11type_casterIT_T0_EESC_RKNS_6handleE: # @_ZN8pybind116detail9load_typeINSt7__cxx1112basic_stringIcSt11char_traitsIcESaIcEEEvEERNS0_11type_casterIT_T0_EESC_RKNS_6handleE
.Lfunc_begin17:
	.cfi_startproc
	.cfi_personality 155, DW.ref.__gxx_personality_v0
	.cfi_lsda 27, .Lexception17
# %bb.0:                                # %entry
	pushq	%rbp
	.cfi_def_cfa_offset 16
	pushq	%r14
	.cfi_def_cfa_offset 24
	pushq	%rbx
	.cfi_def_cfa_offset 32
	subq	$208, %rsp
	.cfi_def_cfa_offset 240
	.cfi_offset %rbx, -32
	.cfi_offset %r14, -24
	.cfi_offset %rbp, -16
	movq	%rsi, %r14
